ARM GAS  C:\Users\zafee\AppData\Local\Temp\cc9GNLBQ.s 			page 1


   1              		.cpu cortex-m4
   2              		.arch armv7e-m
   3              		.fpu fpv4-sp-d16
   4              		.eabi_attribute 27, 1
   5              		.eabi_attribute 28, 1
   6              		.eabi_attribute 20, 1
   7              		.eabi_attribute 21, 1
   8              		.eabi_attribute 23, 3
   9              		.eabi_attribute 24, 1
  10              		.eabi_attribute 25, 1
  11              		.eabi_attribute 26, 1
  12              		.eabi_attribute 30, 1
  13              		.eabi_attribute 34, 1
  14              		.eabi_attribute 18, 4
  15              		.file	"bluenrg1_hal_aci.c"
  16              		.text
  17              	.Ltext0:
  18              		.cfi_sections	.debug_frame
  19              		.file 1 "Middlewares/ST/BlueNRG-2/hci/controller/bluenrg1_hal_aci.c"
  20              		.section	.text.aci_hal_get_fw_build_number,"ax",%progbits
  21              		.align	1
  22              		.global	aci_hal_get_fw_build_number
  23              		.syntax unified
  24              		.thumb
  25              		.thumb_func
  27              	aci_hal_get_fw_build_number:
  28              	.LVL0:
  29              	.LFB130:
   1:Middlewares/ST/BlueNRG-2/hci/controller/bluenrg1_hal_aci.c **** /**
   2:Middlewares/ST/BlueNRG-2/hci/controller/bluenrg1_hal_aci.c ****   ******************************************************************************
   3:Middlewares/ST/BlueNRG-2/hci/controller/bluenrg1_hal_aci.c ****   * @file    bluenrg1_hal_aci.c
   4:Middlewares/ST/BlueNRG-2/hci/controller/bluenrg1_hal_aci.c ****   * @author  AMG - RF Application team
   5:Middlewares/ST/BlueNRG-2/hci/controller/bluenrg1_hal_aci.c ****   * @brief   Source file for external uC - BlueNRG-x in network coprocessor mode
   6:Middlewares/ST/BlueNRG-2/hci/controller/bluenrg1_hal_aci.c ****   *          (hal_aci)
   7:Middlewares/ST/BlueNRG-2/hci/controller/bluenrg1_hal_aci.c ****   *          Autogenerated files, do not edit!!
   8:Middlewares/ST/BlueNRG-2/hci/controller/bluenrg1_hal_aci.c ****   ******************************************************************************
   9:Middlewares/ST/BlueNRG-2/hci/controller/bluenrg1_hal_aci.c ****   * @attention
  10:Middlewares/ST/BlueNRG-2/hci/controller/bluenrg1_hal_aci.c ****   *
  11:Middlewares/ST/BlueNRG-2/hci/controller/bluenrg1_hal_aci.c ****   * Copyright (c) 2020 STMicroelectronics.
  12:Middlewares/ST/BlueNRG-2/hci/controller/bluenrg1_hal_aci.c ****   * All rights reserved.
  13:Middlewares/ST/BlueNRG-2/hci/controller/bluenrg1_hal_aci.c ****   *
  14:Middlewares/ST/BlueNRG-2/hci/controller/bluenrg1_hal_aci.c ****   * This software is licensed under terms that can be found in the LICENSE file
  15:Middlewares/ST/BlueNRG-2/hci/controller/bluenrg1_hal_aci.c ****   * in the root directory of this software component.
  16:Middlewares/ST/BlueNRG-2/hci/controller/bluenrg1_hal_aci.c ****   * If no LICENSE file comes with this software, it is provided AS-IS.
  17:Middlewares/ST/BlueNRG-2/hci/controller/bluenrg1_hal_aci.c ****   *
  18:Middlewares/ST/BlueNRG-2/hci/controller/bluenrg1_hal_aci.c ****   ******************************************************************************
  19:Middlewares/ST/BlueNRG-2/hci/controller/bluenrg1_hal_aci.c ****   */
  20:Middlewares/ST/BlueNRG-2/hci/controller/bluenrg1_hal_aci.c **** #include "ble_types.h"
  21:Middlewares/ST/BlueNRG-2/hci/controller/bluenrg1_hal_aci.c **** #include "bluenrg1_hal_aci.h"
  22:Middlewares/ST/BlueNRG-2/hci/controller/bluenrg1_hal_aci.c **** tBleStatus aci_hal_get_fw_build_number(uint16_t *Build_Number)
  23:Middlewares/ST/BlueNRG-2/hci/controller/bluenrg1_hal_aci.c **** {
  30              		.loc 1 23 1 view -0
  31              		.cfi_startproc
  32              		@ args = 0, pretend = 0, frame = 32
  33              		@ frame_needed = 0, uses_anonymous_args = 0
  34              		.loc 1 23 1 is_stmt 0 view .LVU1
  35 0000 10B5     		push	{r4, lr}
ARM GAS  C:\Users\zafee\AppData\Local\Temp\cc9GNLBQ.s 			page 2


  36              		.cfi_def_cfa_offset 8
  37              		.cfi_offset 4, -8
  38              		.cfi_offset 14, -4
  39 0002 88B0     		sub	sp, sp, #32
  40              		.cfi_def_cfa_offset 40
  41 0004 0446     		mov	r4, r0
  24:Middlewares/ST/BlueNRG-2/hci/controller/bluenrg1_hal_aci.c ****   struct hci_request rq;
  42              		.loc 1 24 3 is_stmt 1 view .LVU2
  25:Middlewares/ST/BlueNRG-2/hci/controller/bluenrg1_hal_aci.c ****   aci_hal_get_fw_build_number_rp0 resp;
  43              		.loc 1 25 3 view .LVU3
  26:Middlewares/ST/BlueNRG-2/hci/controller/bluenrg1_hal_aci.c ****   BLUENRG_memset(&resp, 0, sizeof(resp));
  44              		.loc 1 26 3 view .LVU4
  45 0006 01AB     		add	r3, sp, #4
  46 0008 0021     		movs	r1, #0
  47 000a ADF80410 		strh	r1, [sp, #4]	@ movhi
  48 000e 8DF80610 		strb	r1, [sp, #6]
  27:Middlewares/ST/BlueNRG-2/hci/controller/bluenrg1_hal_aci.c ****   BLUENRG_memset(&rq, 0, sizeof(rq));
  49              		.loc 1 27 3 view .LVU5
  50 0012 0291     		str	r1, [sp, #8]
  51 0014 0391     		str	r1, [sp, #12]
  52 0016 0491     		str	r1, [sp, #16]
  53 0018 0591     		str	r1, [sp, #20]
  54 001a 0691     		str	r1, [sp, #24]
  55 001c 0791     		str	r1, [sp, #28]
  28:Middlewares/ST/BlueNRG-2/hci/controller/bluenrg1_hal_aci.c ****   rq.ogf = 0x3f;
  56              		.loc 1 28 3 view .LVU6
  57              		.loc 1 28 10 is_stmt 0 view .LVU7
  58 001e 3F22     		movs	r2, #63
  59 0020 ADF80820 		strh	r2, [sp, #8]	@ movhi
  29:Middlewares/ST/BlueNRG-2/hci/controller/bluenrg1_hal_aci.c ****   rq.ocf = 0x000;
  60              		.loc 1 29 3 is_stmt 1 view .LVU8
  30:Middlewares/ST/BlueNRG-2/hci/controller/bluenrg1_hal_aci.c ****   rq.rparam = &resp;
  61              		.loc 1 30 3 view .LVU9
  62              		.loc 1 30 13 is_stmt 0 view .LVU10
  63 0024 0693     		str	r3, [sp, #24]
  31:Middlewares/ST/BlueNRG-2/hci/controller/bluenrg1_hal_aci.c ****   rq.rlen = sizeof(resp);
  64              		.loc 1 31 3 is_stmt 1 view .LVU11
  65              		.loc 1 31 11 is_stmt 0 view .LVU12
  66 0026 0323     		movs	r3, #3
  67 0028 0793     		str	r3, [sp, #28]
  32:Middlewares/ST/BlueNRG-2/hci/controller/bluenrg1_hal_aci.c ****   if (hci_send_req(&rq, FALSE) < 0)
  68              		.loc 1 32 3 is_stmt 1 view .LVU13
  69              		.loc 1 32 7 is_stmt 0 view .LVU14
  70 002a 02A8     		add	r0, sp, #8
  71              	.LVL1:
  72              		.loc 1 32 7 view .LVU15
  73 002c FFF7FEFF 		bl	hci_send_req
  74              	.LVL2:
  75              		.loc 1 32 6 view .LVU16
  76 0030 0028     		cmp	r0, #0
  77 0032 07DB     		blt	.L3
  33:Middlewares/ST/BlueNRG-2/hci/controller/bluenrg1_hal_aci.c ****     return BLE_STATUS_TIMEOUT;
  34:Middlewares/ST/BlueNRG-2/hci/controller/bluenrg1_hal_aci.c ****   if (resp.Status) {
  78              		.loc 1 34 3 is_stmt 1 view .LVU17
  79              		.loc 1 34 11 is_stmt 0 view .LVU18
  80 0034 9DF80400 		ldrb	r0, [sp, #4]	@ zero_extendqisi2
  81              		.loc 1 34 6 view .LVU19
ARM GAS  C:\Users\zafee\AppData\Local\Temp\cc9GNLBQ.s 			page 3


  82 0038 10B9     		cbnz	r0, .L2
  35:Middlewares/ST/BlueNRG-2/hci/controller/bluenrg1_hal_aci.c ****     return resp.Status;
  36:Middlewares/ST/BlueNRG-2/hci/controller/bluenrg1_hal_aci.c ****   }
  37:Middlewares/ST/BlueNRG-2/hci/controller/bluenrg1_hal_aci.c ****   *Build_Number = btoh(resp.Build_Number, 2);
  83              		.loc 1 37 3 is_stmt 1 view .LVU20
  84              		.loc 1 37 19 is_stmt 0 view .LVU21
  85 003a BDF80530 		ldrh	r3, [sp, #5]	@ unaligned
  86              		.loc 1 37 17 view .LVU22
  87 003e 2380     		strh	r3, [r4]	@ movhi
  38:Middlewares/ST/BlueNRG-2/hci/controller/bluenrg1_hal_aci.c ****   return BLE_STATUS_SUCCESS;
  88              		.loc 1 38 3 is_stmt 1 view .LVU23
  89              	.L2:
  39:Middlewares/ST/BlueNRG-2/hci/controller/bluenrg1_hal_aci.c **** }
  90              		.loc 1 39 1 is_stmt 0 view .LVU24
  91 0040 08B0     		add	sp, sp, #32
  92              		.cfi_remember_state
  93              		.cfi_def_cfa_offset 8
  94              		@ sp needed
  95 0042 10BD     		pop	{r4, pc}
  96              	.LVL3:
  97              	.L3:
  98              		.cfi_restore_state
  33:Middlewares/ST/BlueNRG-2/hci/controller/bluenrg1_hal_aci.c ****   if (resp.Status) {
  99              		.loc 1 33 12 view .LVU25
 100 0044 FF20     		movs	r0, #255
 101 0046 FBE7     		b	.L2
 102              		.cfi_endproc
 103              	.LFE130:
 105              		.section	.text.aci_hal_get_firmware_details,"ax",%progbits
 106              		.align	1
 107              		.global	aci_hal_get_firmware_details
 108              		.syntax unified
 109              		.thumb
 110              		.thumb_func
 112              	aci_hal_get_firmware_details:
 113              	.LVL4:
 114              	.LFB131:
  40:Middlewares/ST/BlueNRG-2/hci/controller/bluenrg1_hal_aci.c **** tBleStatus aci_hal_get_firmware_details(uint8_t *DTM_version_major,
  41:Middlewares/ST/BlueNRG-2/hci/controller/bluenrg1_hal_aci.c ****                                         uint8_t *DTM_version_minor,
  42:Middlewares/ST/BlueNRG-2/hci/controller/bluenrg1_hal_aci.c ****                                         uint8_t *DTM_version_patch,
  43:Middlewares/ST/BlueNRG-2/hci/controller/bluenrg1_hal_aci.c ****                                         uint8_t *DTM_variant,
  44:Middlewares/ST/BlueNRG-2/hci/controller/bluenrg1_hal_aci.c ****                                         uint16_t *DTM_Build_Number,
  45:Middlewares/ST/BlueNRG-2/hci/controller/bluenrg1_hal_aci.c ****                                         uint8_t *BTLE_Stack_version_major,
  46:Middlewares/ST/BlueNRG-2/hci/controller/bluenrg1_hal_aci.c ****                                         uint8_t *BTLE_Stack_version_minor,
  47:Middlewares/ST/BlueNRG-2/hci/controller/bluenrg1_hal_aci.c ****                                         uint8_t *BTLE_Stack_version_patch,
  48:Middlewares/ST/BlueNRG-2/hci/controller/bluenrg1_hal_aci.c ****                                         uint8_t *BTLE_Stack_development,
  49:Middlewares/ST/BlueNRG-2/hci/controller/bluenrg1_hal_aci.c ****                                         uint16_t *BTLE_Stack_variant,
  50:Middlewares/ST/BlueNRG-2/hci/controller/bluenrg1_hal_aci.c ****                                         uint16_t *BTLE_Stack_Build_Number)
  51:Middlewares/ST/BlueNRG-2/hci/controller/bluenrg1_hal_aci.c **** {
 115              		.loc 1 51 1 is_stmt 1 view -0
 116              		.cfi_startproc
 117              		@ args = 28, pretend = 0, frame = 40
 118              		@ frame_needed = 0, uses_anonymous_args = 0
 119              		.loc 1 51 1 is_stmt 0 view .LVU27
 120 0000 F0B5     		push	{r4, r5, r6, r7, lr}
 121              		.cfi_def_cfa_offset 20
 122              		.cfi_offset 4, -20
ARM GAS  C:\Users\zafee\AppData\Local\Temp\cc9GNLBQ.s 			page 4


 123              		.cfi_offset 5, -16
 124              		.cfi_offset 6, -12
 125              		.cfi_offset 7, -8
 126              		.cfi_offset 14, -4
 127 0002 8BB0     		sub	sp, sp, #44
 128              		.cfi_def_cfa_offset 64
 129 0004 0746     		mov	r7, r0
 130 0006 0E46     		mov	r6, r1
 131 0008 1546     		mov	r5, r2
 132 000a 1C46     		mov	r4, r3
  52:Middlewares/ST/BlueNRG-2/hci/controller/bluenrg1_hal_aci.c ****   struct hci_request rq;
 133              		.loc 1 52 3 is_stmt 1 view .LVU28
  53:Middlewares/ST/BlueNRG-2/hci/controller/bluenrg1_hal_aci.c ****   aci_hal_get_firmware_details_rp0 resp;
 134              		.loc 1 53 3 view .LVU29
  54:Middlewares/ST/BlueNRG-2/hci/controller/bluenrg1_hal_aci.c ****   BLUENRG_memset(&resp, 0, sizeof(resp));
 135              		.loc 1 54 3 view .LVU30
 136 000c 0021     		movs	r1, #0
 137              	.LVL5:
 138              		.loc 1 54 3 is_stmt 0 view .LVU31
 139 000e 0091     		str	r1, [sp]
 140 0010 0191     		str	r1, [sp, #4]
 141 0012 0291     		str	r1, [sp, #8]
 142 0014 CDF80B10 		str	r1, [sp, #11]	@ unaligned
  55:Middlewares/ST/BlueNRG-2/hci/controller/bluenrg1_hal_aci.c ****   BLUENRG_memset(&rq, 0, sizeof(rq));
 143              		.loc 1 55 3 is_stmt 1 view .LVU32
 144 0018 0491     		str	r1, [sp, #16]
 145 001a 0591     		str	r1, [sp, #20]
 146 001c 0691     		str	r1, [sp, #24]
 147 001e 0791     		str	r1, [sp, #28]
 148 0020 0891     		str	r1, [sp, #32]
 149 0022 0991     		str	r1, [sp, #36]
  56:Middlewares/ST/BlueNRG-2/hci/controller/bluenrg1_hal_aci.c ****   rq.ogf = 0x3f;
 150              		.loc 1 56 3 view .LVU33
 151              		.loc 1 56 10 is_stmt 0 view .LVU34
 152 0024 3F23     		movs	r3, #63
 153              	.LVL6:
 154              		.loc 1 56 10 view .LVU35
 155 0026 ADF81030 		strh	r3, [sp, #16]	@ movhi
  57:Middlewares/ST/BlueNRG-2/hci/controller/bluenrg1_hal_aci.c ****   rq.ocf = 0x001;
 156              		.loc 1 57 3 is_stmt 1 view .LVU36
 157              		.loc 1 57 10 is_stmt 0 view .LVU37
 158 002a 0123     		movs	r3, #1
 159 002c ADF81230 		strh	r3, [sp, #18]	@ movhi
  58:Middlewares/ST/BlueNRG-2/hci/controller/bluenrg1_hal_aci.c ****   rq.rparam = &resp;
 160              		.loc 1 58 3 is_stmt 1 view .LVU38
 161              		.loc 1 58 13 is_stmt 0 view .LVU39
 162 0030 CDF820D0 		str	sp, [sp, #32]
  59:Middlewares/ST/BlueNRG-2/hci/controller/bluenrg1_hal_aci.c ****   rq.rlen = sizeof(resp);
 163              		.loc 1 59 3 is_stmt 1 view .LVU40
 164              		.loc 1 59 11 is_stmt 0 view .LVU41
 165 0034 0F23     		movs	r3, #15
 166 0036 0993     		str	r3, [sp, #36]
  60:Middlewares/ST/BlueNRG-2/hci/controller/bluenrg1_hal_aci.c ****   if (hci_send_req(&rq, FALSE) < 0)
 167              		.loc 1 60 3 is_stmt 1 view .LVU42
 168              		.loc 1 60 7 is_stmt 0 view .LVU43
 169 0038 04A8     		add	r0, sp, #16
 170              	.LVL7:
ARM GAS  C:\Users\zafee\AppData\Local\Temp\cc9GNLBQ.s 			page 5


 171              		.loc 1 60 7 view .LVU44
 172 003a FFF7FEFF 		bl	hci_send_req
 173              	.LVL8:
 174              		.loc 1 60 6 view .LVU45
 175 003e 0028     		cmp	r0, #0
 176 0040 2CDB     		blt	.L7
  61:Middlewares/ST/BlueNRG-2/hci/controller/bluenrg1_hal_aci.c ****     return BLE_STATUS_TIMEOUT;
  62:Middlewares/ST/BlueNRG-2/hci/controller/bluenrg1_hal_aci.c ****   if (resp.Status) {
 177              		.loc 1 62 3 is_stmt 1 view .LVU46
 178              		.loc 1 62 11 is_stmt 0 view .LVU47
 179 0042 9DF80000 		ldrb	r0, [sp]	@ zero_extendqisi2
 180              		.loc 1 62 6 view .LVU48
 181 0046 38BB     		cbnz	r0, .L6
  63:Middlewares/ST/BlueNRG-2/hci/controller/bluenrg1_hal_aci.c ****     return resp.Status;
  64:Middlewares/ST/BlueNRG-2/hci/controller/bluenrg1_hal_aci.c ****   }
  65:Middlewares/ST/BlueNRG-2/hci/controller/bluenrg1_hal_aci.c ****   *DTM_version_major = btoh(resp.DTM_version_major, 1);
 182              		.loc 1 65 3 is_stmt 1 view .LVU49
 183              		.loc 1 65 24 is_stmt 0 view .LVU50
 184 0048 9DF80130 		ldrb	r3, [sp, #1]	@ zero_extendqisi2
 185              		.loc 1 65 22 view .LVU51
 186 004c 3B70     		strb	r3, [r7]
  66:Middlewares/ST/BlueNRG-2/hci/controller/bluenrg1_hal_aci.c ****   *DTM_version_minor = btoh(resp.DTM_version_minor, 1);
 187              		.loc 1 66 3 is_stmt 1 view .LVU52
 188              		.loc 1 66 24 is_stmt 0 view .LVU53
 189 004e 9DF80230 		ldrb	r3, [sp, #2]	@ zero_extendqisi2
 190              		.loc 1 66 22 view .LVU54
 191 0052 3370     		strb	r3, [r6]
  67:Middlewares/ST/BlueNRG-2/hci/controller/bluenrg1_hal_aci.c ****   *DTM_version_patch = btoh(resp.DTM_version_patch, 1);
 192              		.loc 1 67 3 is_stmt 1 view .LVU55
 193              		.loc 1 67 24 is_stmt 0 view .LVU56
 194 0054 9DF80330 		ldrb	r3, [sp, #3]	@ zero_extendqisi2
 195              		.loc 1 67 22 view .LVU57
 196 0058 2B70     		strb	r3, [r5]
  68:Middlewares/ST/BlueNRG-2/hci/controller/bluenrg1_hal_aci.c ****   *DTM_variant = btoh(resp.DTM_variant, 1);
 197              		.loc 1 68 3 is_stmt 1 view .LVU58
 198              		.loc 1 68 18 is_stmt 0 view .LVU59
 199 005a 9DF80430 		ldrb	r3, [sp, #4]	@ zero_extendqisi2
 200              		.loc 1 68 16 view .LVU60
 201 005e 2370     		strb	r3, [r4]
  69:Middlewares/ST/BlueNRG-2/hci/controller/bluenrg1_hal_aci.c ****   *DTM_Build_Number = btoh(resp.DTM_Build_Number, 2);
 202              		.loc 1 69 3 is_stmt 1 view .LVU61
 203              		.loc 1 69 23 is_stmt 0 view .LVU62
 204 0060 BDF80520 		ldrh	r2, [sp, #5]	@ unaligned
 205              		.loc 1 69 21 view .LVU63
 206 0064 109B     		ldr	r3, [sp, #64]
 207 0066 1A80     		strh	r2, [r3]	@ movhi
  70:Middlewares/ST/BlueNRG-2/hci/controller/bluenrg1_hal_aci.c ****   *BTLE_Stack_version_major = btoh(resp.BTLE_Stack_version_major, 1);
 208              		.loc 1 70 3 is_stmt 1 view .LVU64
 209              		.loc 1 70 31 is_stmt 0 view .LVU65
 210 0068 9DF80720 		ldrb	r2, [sp, #7]	@ zero_extendqisi2
 211              		.loc 1 70 29 view .LVU66
 212 006c 119B     		ldr	r3, [sp, #68]
 213 006e 1A70     		strb	r2, [r3]
  71:Middlewares/ST/BlueNRG-2/hci/controller/bluenrg1_hal_aci.c ****   *BTLE_Stack_version_minor = btoh(resp.BTLE_Stack_version_minor, 1);
 214              		.loc 1 71 3 is_stmt 1 view .LVU67
 215              		.loc 1 71 31 is_stmt 0 view .LVU68
 216 0070 9DF80820 		ldrb	r2, [sp, #8]	@ zero_extendqisi2
ARM GAS  C:\Users\zafee\AppData\Local\Temp\cc9GNLBQ.s 			page 6


 217              		.loc 1 71 29 view .LVU69
 218 0074 129B     		ldr	r3, [sp, #72]
 219 0076 1A70     		strb	r2, [r3]
  72:Middlewares/ST/BlueNRG-2/hci/controller/bluenrg1_hal_aci.c ****   *BTLE_Stack_version_patch = btoh(resp.BTLE_Stack_version_patch, 1);
 220              		.loc 1 72 3 is_stmt 1 view .LVU70
 221              		.loc 1 72 31 is_stmt 0 view .LVU71
 222 0078 9DF80920 		ldrb	r2, [sp, #9]	@ zero_extendqisi2
 223              		.loc 1 72 29 view .LVU72
 224 007c 139B     		ldr	r3, [sp, #76]
 225 007e 1A70     		strb	r2, [r3]
  73:Middlewares/ST/BlueNRG-2/hci/controller/bluenrg1_hal_aci.c ****   *BTLE_Stack_development = btoh(resp.BTLE_Stack_development, 1);
 226              		.loc 1 73 3 is_stmt 1 view .LVU73
 227              		.loc 1 73 29 is_stmt 0 view .LVU74
 228 0080 9DF80A20 		ldrb	r2, [sp, #10]	@ zero_extendqisi2
 229              		.loc 1 73 27 view .LVU75
 230 0084 149B     		ldr	r3, [sp, #80]
 231 0086 1A70     		strb	r2, [r3]
  74:Middlewares/ST/BlueNRG-2/hci/controller/bluenrg1_hal_aci.c ****   *BTLE_Stack_variant = btoh(resp.BTLE_Stack_variant, 2);
 232              		.loc 1 74 3 is_stmt 1 view .LVU76
 233              		.loc 1 74 25 is_stmt 0 view .LVU77
 234 0088 BDF80B20 		ldrh	r2, [sp, #11]	@ unaligned
 235              		.loc 1 74 23 view .LVU78
 236 008c 159B     		ldr	r3, [sp, #84]
 237 008e 1A80     		strh	r2, [r3]	@ movhi
  75:Middlewares/ST/BlueNRG-2/hci/controller/bluenrg1_hal_aci.c ****   *BTLE_Stack_Build_Number = btoh(resp.BTLE_Stack_Build_Number, 2);
 238              		.loc 1 75 3 is_stmt 1 view .LVU79
 239              		.loc 1 75 30 is_stmt 0 view .LVU80
 240 0090 BDF80D20 		ldrh	r2, [sp, #13]	@ unaligned
 241              		.loc 1 75 28 view .LVU81
 242 0094 169B     		ldr	r3, [sp, #88]
 243 0096 1A80     		strh	r2, [r3]	@ movhi
  76:Middlewares/ST/BlueNRG-2/hci/controller/bluenrg1_hal_aci.c ****   return BLE_STATUS_SUCCESS;
 244              		.loc 1 76 3 is_stmt 1 view .LVU82
 245              	.L6:
  77:Middlewares/ST/BlueNRG-2/hci/controller/bluenrg1_hal_aci.c **** }
 246              		.loc 1 77 1 is_stmt 0 view .LVU83
 247 0098 0BB0     		add	sp, sp, #44
 248              		.cfi_remember_state
 249              		.cfi_def_cfa_offset 20
 250              		@ sp needed
 251 009a F0BD     		pop	{r4, r5, r6, r7, pc}
 252              	.LVL9:
 253              	.L7:
 254              		.cfi_restore_state
  61:Middlewares/ST/BlueNRG-2/hci/controller/bluenrg1_hal_aci.c ****   if (resp.Status) {
 255              		.loc 1 61 12 view .LVU84
 256 009c FF20     		movs	r0, #255
 257 009e FBE7     		b	.L6
 258              		.cfi_endproc
 259              	.LFE131:
 261              		.section	.text.aci_hal_write_config_data,"ax",%progbits
 262              		.align	1
 263              		.global	aci_hal_write_config_data
 264              		.syntax unified
 265              		.thumb
 266              		.thumb_func
 268              	aci_hal_write_config_data:
ARM GAS  C:\Users\zafee\AppData\Local\Temp\cc9GNLBQ.s 			page 7


 269              	.LVL10:
 270              	.LFB132:
  78:Middlewares/ST/BlueNRG-2/hci/controller/bluenrg1_hal_aci.c **** tBleStatus aci_hal_write_config_data(uint8_t Offset,
  79:Middlewares/ST/BlueNRG-2/hci/controller/bluenrg1_hal_aci.c ****                                      uint8_t Length,
  80:Middlewares/ST/BlueNRG-2/hci/controller/bluenrg1_hal_aci.c ****                                      uint8_t Value[])
  81:Middlewares/ST/BlueNRG-2/hci/controller/bluenrg1_hal_aci.c **** {
 271              		.loc 1 81 1 is_stmt 1 view -0
 272              		.cfi_startproc
 273              		@ args = 0, pretend = 0, frame = 288
 274              		@ frame_needed = 0, uses_anonymous_args = 0
 275              		.loc 1 81 1 is_stmt 0 view .LVU86
 276 0000 F0B5     		push	{r4, r5, r6, r7, lr}
 277              		.cfi_def_cfa_offset 20
 278              		.cfi_offset 4, -20
 279              		.cfi_offset 5, -16
 280              		.cfi_offset 6, -12
 281              		.cfi_offset 7, -8
 282              		.cfi_offset 14, -4
 283 0002 C9B0     		sub	sp, sp, #292
 284              		.cfi_def_cfa_offset 312
 285 0004 0C46     		mov	r4, r1
 286 0006 1146     		mov	r1, r2
 287              	.LVL11:
  82:Middlewares/ST/BlueNRG-2/hci/controller/bluenrg1_hal_aci.c ****   struct hci_request rq;
 288              		.loc 1 82 3 is_stmt 1 view .LVU87
  83:Middlewares/ST/BlueNRG-2/hci/controller/bluenrg1_hal_aci.c ****   uint8_t cmd_buffer[258];
 289              		.loc 1 83 3 view .LVU88
  84:Middlewares/ST/BlueNRG-2/hci/controller/bluenrg1_hal_aci.c ****   aci_hal_write_config_data_cp0 *cp0 = (aci_hal_write_config_data_cp0*)(cmd_buffer);
 290              		.loc 1 84 3 view .LVU89
  85:Middlewares/ST/BlueNRG-2/hci/controller/bluenrg1_hal_aci.c ****   tBleStatus status = 0;
 291              		.loc 1 85 3 view .LVU90
 292              		.loc 1 85 14 is_stmt 0 view .LVU91
 293 0008 0DF10307 		add	r7, sp, #3
 294 000c 0025     		movs	r5, #0
 295 000e 8DF80350 		strb	r5, [sp, #3]
  86:Middlewares/ST/BlueNRG-2/hci/controller/bluenrg1_hal_aci.c ****   uint8_t index_input = 0;
 296              		.loc 1 86 3 is_stmt 1 view .LVU92
 297              	.LVL12:
  87:Middlewares/ST/BlueNRG-2/hci/controller/bluenrg1_hal_aci.c ****   cp0->Offset = htob(Offset, 1);
 298              		.loc 1 87 3 view .LVU93
 299              		.loc 1 87 15 is_stmt 0 view .LVU94
 300 0012 01AE     		add	r6, sp, #4
 301              	.LVL13:
 302              		.loc 1 87 15 view .LVU95
 303 0014 8DF80400 		strb	r0, [sp, #4]
  88:Middlewares/ST/BlueNRG-2/hci/controller/bluenrg1_hal_aci.c ****   index_input += 1;
 304              		.loc 1 88 3 is_stmt 1 view .LVU96
 305              	.LVL14:
  89:Middlewares/ST/BlueNRG-2/hci/controller/bluenrg1_hal_aci.c ****   cp0->Length = htob(Length, 1);
 306              		.loc 1 89 3 view .LVU97
 307              		.loc 1 89 15 is_stmt 0 view .LVU98
 308 0018 8DF80540 		strb	r4, [sp, #5]
  90:Middlewares/ST/BlueNRG-2/hci/controller/bluenrg1_hal_aci.c ****   index_input += 1;
 309              		.loc 1 90 3 is_stmt 1 view .LVU99
 310              	.LVL15:
  91:Middlewares/ST/BlueNRG-2/hci/controller/bluenrg1_hal_aci.c ****   /* var_len_data input */
  92:Middlewares/ST/BlueNRG-2/hci/controller/bluenrg1_hal_aci.c ****   {
ARM GAS  C:\Users\zafee\AppData\Local\Temp\cc9GNLBQ.s 			page 8


  93:Middlewares/ST/BlueNRG-2/hci/controller/bluenrg1_hal_aci.c ****     BLUENRG_memcpy((void *) &cp0->Value, (const void *) Value, Length*sizeof(uint8_t));
 311              		.loc 1 93 5 view .LVU100
 312 001c 2246     		mov	r2, r4
 313              	.LVL16:
 314              		.loc 1 93 5 is_stmt 0 view .LVU101
 315 001e 0DF10600 		add	r0, sp, #6
 316              	.LVL17:
 317              		.loc 1 93 5 view .LVU102
 318 0022 FFF7FEFF 		bl	memcpy
 319              	.LVL18:
  94:Middlewares/ST/BlueNRG-2/hci/controller/bluenrg1_hal_aci.c ****     index_input += Length*sizeof(uint8_t);
 320              		.loc 1 94 5 is_stmt 1 view .LVU103
 321              		.loc 1 94 17 is_stmt 0 view .LVU104
 322 0026 0234     		adds	r4, r4, #2
 323 0028 E4B2     		uxtb	r4, r4
 324              	.LVL19:
  95:Middlewares/ST/BlueNRG-2/hci/controller/bluenrg1_hal_aci.c ****   }
  96:Middlewares/ST/BlueNRG-2/hci/controller/bluenrg1_hal_aci.c ****   BLUENRG_memset(&rq, 0, sizeof(rq));
 325              		.loc 1 96 3 is_stmt 1 view .LVU105
 326 002a 4295     		str	r5, [sp, #264]
 327 002c 4395     		str	r5, [sp, #268]
 328 002e 4495     		str	r5, [sp, #272]
 329 0030 4595     		str	r5, [sp, #276]
 330 0032 4695     		str	r5, [sp, #280]
 331 0034 4795     		str	r5, [sp, #284]
  97:Middlewares/ST/BlueNRG-2/hci/controller/bluenrg1_hal_aci.c ****   rq.ogf = 0x3f;
 332              		.loc 1 97 3 view .LVU106
 333              		.loc 1 97 10 is_stmt 0 view .LVU107
 334 0036 3F23     		movs	r3, #63
 335 0038 ADF80831 		strh	r3, [sp, #264]	@ movhi
  98:Middlewares/ST/BlueNRG-2/hci/controller/bluenrg1_hal_aci.c ****   rq.ocf = 0x00c;
 336              		.loc 1 98 3 is_stmt 1 view .LVU108
 337              		.loc 1 98 10 is_stmt 0 view .LVU109
 338 003c 0C23     		movs	r3, #12
 339 003e ADF80A31 		strh	r3, [sp, #266]	@ movhi
  99:Middlewares/ST/BlueNRG-2/hci/controller/bluenrg1_hal_aci.c ****   rq.cparam = cmd_buffer;
 340              		.loc 1 99 3 is_stmt 1 view .LVU110
 341              		.loc 1 99 13 is_stmt 0 view .LVU111
 342 0042 4496     		str	r6, [sp, #272]
 100:Middlewares/ST/BlueNRG-2/hci/controller/bluenrg1_hal_aci.c ****   rq.clen = index_input;
 343              		.loc 1 100 3 is_stmt 1 view .LVU112
 344              		.loc 1 100 11 is_stmt 0 view .LVU113
 345 0044 4594     		str	r4, [sp, #276]
 101:Middlewares/ST/BlueNRG-2/hci/controller/bluenrg1_hal_aci.c ****   rq.rparam = &status;
 346              		.loc 1 101 3 is_stmt 1 view .LVU114
 347              		.loc 1 101 13 is_stmt 0 view .LVU115
 348 0046 4697     		str	r7, [sp, #280]
 102:Middlewares/ST/BlueNRG-2/hci/controller/bluenrg1_hal_aci.c ****   rq.rlen = 1;
 349              		.loc 1 102 3 is_stmt 1 view .LVU116
 350              		.loc 1 102 11 is_stmt 0 view .LVU117
 351 0048 0123     		movs	r3, #1
 352 004a 4793     		str	r3, [sp, #284]
 103:Middlewares/ST/BlueNRG-2/hci/controller/bluenrg1_hal_aci.c ****   if (hci_send_req(&rq, FALSE) < 0)
 353              		.loc 1 103 3 is_stmt 1 view .LVU118
 354              		.loc 1 103 7 is_stmt 0 view .LVU119
 355 004c 2946     		mov	r1, r5
 356 004e 42A8     		add	r0, sp, #264
ARM GAS  C:\Users\zafee\AppData\Local\Temp\cc9GNLBQ.s 			page 9


 357 0050 FFF7FEFF 		bl	hci_send_req
 358              	.LVL20:
 359              		.loc 1 103 6 view .LVU120
 360 0054 A842     		cmp	r0, r5
 361 0056 03DB     		blt	.L11
 104:Middlewares/ST/BlueNRG-2/hci/controller/bluenrg1_hal_aci.c ****     return BLE_STATUS_TIMEOUT;
 105:Middlewares/ST/BlueNRG-2/hci/controller/bluenrg1_hal_aci.c ****   if (status) {
 362              		.loc 1 105 3 is_stmt 1 view .LVU121
 363              		.loc 1 105 7 is_stmt 0 view .LVU122
 364 0058 9DF80300 		ldrb	r0, [sp, #3]	@ zero_extendqisi2
 365              	.L10:
 106:Middlewares/ST/BlueNRG-2/hci/controller/bluenrg1_hal_aci.c ****     return status;
 107:Middlewares/ST/BlueNRG-2/hci/controller/bluenrg1_hal_aci.c ****   }
 108:Middlewares/ST/BlueNRG-2/hci/controller/bluenrg1_hal_aci.c ****   return BLE_STATUS_SUCCESS;
 109:Middlewares/ST/BlueNRG-2/hci/controller/bluenrg1_hal_aci.c **** }
 366              		.loc 1 109 1 view .LVU123
 367 005c 49B0     		add	sp, sp, #292
 368              		.cfi_remember_state
 369              		.cfi_def_cfa_offset 20
 370              		@ sp needed
 371 005e F0BD     		pop	{r4, r5, r6, r7, pc}
 372              	.LVL21:
 373              	.L11:
 374              		.cfi_restore_state
 104:Middlewares/ST/BlueNRG-2/hci/controller/bluenrg1_hal_aci.c ****     return BLE_STATUS_TIMEOUT;
 375              		.loc 1 104 12 view .LVU124
 376 0060 FF20     		movs	r0, #255
 377 0062 FBE7     		b	.L10
 378              		.cfi_endproc
 379              	.LFE132:
 381              		.section	.text.aci_hal_read_config_data,"ax",%progbits
 382              		.align	1
 383              		.global	aci_hal_read_config_data
 384              		.syntax unified
 385              		.thumb
 386              		.thumb_func
 388              	aci_hal_read_config_data:
 389              	.LVL22:
 390              	.LFB133:
 110:Middlewares/ST/BlueNRG-2/hci/controller/bluenrg1_hal_aci.c **** tBleStatus aci_hal_read_config_data(uint8_t Offset,
 111:Middlewares/ST/BlueNRG-2/hci/controller/bluenrg1_hal_aci.c ****                                     uint8_t *Data_Length,
 112:Middlewares/ST/BlueNRG-2/hci/controller/bluenrg1_hal_aci.c ****                                     uint8_t Data[])
 113:Middlewares/ST/BlueNRG-2/hci/controller/bluenrg1_hal_aci.c **** {
 391              		.loc 1 113 1 is_stmt 1 view -0
 392              		.cfi_startproc
 393              		@ args = 0, pretend = 0, frame = 416
 394              		@ frame_needed = 0, uses_anonymous_args = 0
 395              		.loc 1 113 1 is_stmt 0 view .LVU126
 396 0000 2DE9F041 		push	{r4, r5, r6, r7, r8, lr}
 397              		.cfi_def_cfa_offset 24
 398              		.cfi_offset 4, -24
 399              		.cfi_offset 5, -20
 400              		.cfi_offset 6, -16
 401              		.cfi_offset 7, -12
 402              		.cfi_offset 8, -8
 403              		.cfi_offset 14, -4
 404 0004 E8B0     		sub	sp, sp, #416
ARM GAS  C:\Users\zafee\AppData\Local\Temp\cc9GNLBQ.s 			page 10


 405              		.cfi_def_cfa_offset 440
 406 0006 0446     		mov	r4, r0
 407 0008 0E46     		mov	r6, r1
 408 000a 1546     		mov	r5, r2
 114:Middlewares/ST/BlueNRG-2/hci/controller/bluenrg1_hal_aci.c ****   struct hci_request rq;
 409              		.loc 1 114 3 is_stmt 1 view .LVU127
 115:Middlewares/ST/BlueNRG-2/hci/controller/bluenrg1_hal_aci.c ****   uint8_t cmd_buffer[258];
 410              		.loc 1 115 3 view .LVU128
 116:Middlewares/ST/BlueNRG-2/hci/controller/bluenrg1_hal_aci.c ****   aci_hal_read_config_data_cp0 *cp0 = (aci_hal_read_config_data_cp0*)(cmd_buffer);
 411              		.loc 1 116 3 view .LVU129
 412              	.LVL23:
 117:Middlewares/ST/BlueNRG-2/hci/controller/bluenrg1_hal_aci.c ****   aci_hal_read_config_data_rp0 resp;
 413              		.loc 1 117 3 view .LVU130
 118:Middlewares/ST/BlueNRG-2/hci/controller/bluenrg1_hal_aci.c ****   BLUENRG_memset(&resp, 0, sizeof(resp));
 414              		.loc 1 118 3 view .LVU131
 415 000c 0DF10408 		add	r8, sp, #4
 416 0010 8027     		movs	r7, #128
 417 0012 3A46     		mov	r2, r7
 418              	.LVL24:
 419              		.loc 1 118 3 is_stmt 0 view .LVU132
 420 0014 0021     		movs	r1, #0
 421              	.LVL25:
 422              		.loc 1 118 3 view .LVU133
 423 0016 4046     		mov	r0, r8
 424              	.LVL26:
 425              		.loc 1 118 3 view .LVU134
 426 0018 FFF7FEFF 		bl	memset
 427              	.LVL27:
 119:Middlewares/ST/BlueNRG-2/hci/controller/bluenrg1_hal_aci.c ****   uint8_t index_input = 0;
 428              		.loc 1 119 3 is_stmt 1 view .LVU135
 120:Middlewares/ST/BlueNRG-2/hci/controller/bluenrg1_hal_aci.c ****   cp0->Offset = htob(Offset, 1);
 429              		.loc 1 120 3 view .LVU136
 430              		.loc 1 120 15 is_stmt 0 view .LVU137
 431 001c 21AB     		add	r3, sp, #132
 432              	.LVL28:
 433              		.loc 1 120 15 view .LVU138
 434 001e 8DF88440 		strb	r4, [sp, #132]
 121:Middlewares/ST/BlueNRG-2/hci/controller/bluenrg1_hal_aci.c ****   index_input += 1;
 435              		.loc 1 121 3 is_stmt 1 view .LVU139
 436              	.LVL29:
 122:Middlewares/ST/BlueNRG-2/hci/controller/bluenrg1_hal_aci.c ****   BLUENRG_memset(&rq, 0, sizeof(rq));
 437              		.loc 1 122 3 view .LVU140
 438 0022 0021     		movs	r1, #0
 439 0024 6291     		str	r1, [sp, #392]
 440 0026 6391     		str	r1, [sp, #396]
 441 0028 6491     		str	r1, [sp, #400]
 442 002a 6591     		str	r1, [sp, #404]
 443 002c 6691     		str	r1, [sp, #408]
 444 002e 6791     		str	r1, [sp, #412]
 123:Middlewares/ST/BlueNRG-2/hci/controller/bluenrg1_hal_aci.c ****   rq.ogf = 0x3f;
 445              		.loc 1 123 3 view .LVU141
 446              		.loc 1 123 10 is_stmt 0 view .LVU142
 447 0030 3F22     		movs	r2, #63
 448 0032 ADF88821 		strh	r2, [sp, #392]	@ movhi
 124:Middlewares/ST/BlueNRG-2/hci/controller/bluenrg1_hal_aci.c ****   rq.ocf = 0x00d;
 449              		.loc 1 124 3 is_stmt 1 view .LVU143
 450              		.loc 1 124 10 is_stmt 0 view .LVU144
ARM GAS  C:\Users\zafee\AppData\Local\Temp\cc9GNLBQ.s 			page 11


 451 0036 0D22     		movs	r2, #13
 452 0038 ADF88A21 		strh	r2, [sp, #394]	@ movhi
 125:Middlewares/ST/BlueNRG-2/hci/controller/bluenrg1_hal_aci.c ****   rq.cparam = cmd_buffer;
 453              		.loc 1 125 3 is_stmt 1 view .LVU145
 454              		.loc 1 125 13 is_stmt 0 view .LVU146
 455 003c 6493     		str	r3, [sp, #400]
 126:Middlewares/ST/BlueNRG-2/hci/controller/bluenrg1_hal_aci.c ****   rq.clen = index_input;
 456              		.loc 1 126 3 is_stmt 1 view .LVU147
 457              		.loc 1 126 11 is_stmt 0 view .LVU148
 458 003e 0123     		movs	r3, #1
 459              	.LVL30:
 460              		.loc 1 126 11 view .LVU149
 461 0040 6593     		str	r3, [sp, #404]
 127:Middlewares/ST/BlueNRG-2/hci/controller/bluenrg1_hal_aci.c ****   rq.rparam = &resp;
 462              		.loc 1 127 3 is_stmt 1 view .LVU150
 463              		.loc 1 127 13 is_stmt 0 view .LVU151
 464 0042 CDF89881 		str	r8, [sp, #408]
 128:Middlewares/ST/BlueNRG-2/hci/controller/bluenrg1_hal_aci.c ****   rq.rlen = sizeof(resp);
 465              		.loc 1 128 3 is_stmt 1 view .LVU152
 466              		.loc 1 128 11 is_stmt 0 view .LVU153
 467 0046 6797     		str	r7, [sp, #412]
 129:Middlewares/ST/BlueNRG-2/hci/controller/bluenrg1_hal_aci.c ****   if (hci_send_req(&rq, FALSE) < 0)
 468              		.loc 1 129 3 is_stmt 1 view .LVU154
 469              		.loc 1 129 7 is_stmt 0 view .LVU155
 470 0048 62A8     		add	r0, sp, #392
 471 004a FFF7FEFF 		bl	hci_send_req
 472              	.LVL31:
 473              		.loc 1 129 6 view .LVU156
 474 004e 0028     		cmp	r0, #0
 475 0050 0FDB     		blt	.L15
 130:Middlewares/ST/BlueNRG-2/hci/controller/bluenrg1_hal_aci.c ****     return BLE_STATUS_TIMEOUT;
 131:Middlewares/ST/BlueNRG-2/hci/controller/bluenrg1_hal_aci.c ****   if (resp.Status) {
 476              		.loc 1 131 3 is_stmt 1 view .LVU157
 477              		.loc 1 131 11 is_stmt 0 view .LVU158
 478 0052 9DF80440 		ldrb	r4, [sp, #4]	@ zero_extendqisi2
 479              		.loc 1 131 6 view .LVU159
 480 0056 1CB1     		cbz	r4, .L17
 481              	.L14:
 132:Middlewares/ST/BlueNRG-2/hci/controller/bluenrg1_hal_aci.c ****     return resp.Status;
 133:Middlewares/ST/BlueNRG-2/hci/controller/bluenrg1_hal_aci.c ****   }
 134:Middlewares/ST/BlueNRG-2/hci/controller/bluenrg1_hal_aci.c ****   *Data_Length = btoh(resp.Data_Length, 1);
 135:Middlewares/ST/BlueNRG-2/hci/controller/bluenrg1_hal_aci.c ****   BLUENRG_memcpy((void *) Data, (const void *) resp.Data, *Data_Length*sizeof(uint8_t));
 136:Middlewares/ST/BlueNRG-2/hci/controller/bluenrg1_hal_aci.c ****   return BLE_STATUS_SUCCESS;
 137:Middlewares/ST/BlueNRG-2/hci/controller/bluenrg1_hal_aci.c **** }
 482              		.loc 1 137 1 view .LVU160
 483 0058 2046     		mov	r0, r4
 484 005a 68B0     		add	sp, sp, #416
 485              		.cfi_remember_state
 486              		.cfi_def_cfa_offset 24
 487              		@ sp needed
 488 005c BDE8F081 		pop	{r4, r5, r6, r7, r8, pc}
 489              	.LVL32:
 490              	.L17:
 491              		.cfi_restore_state
 134:Middlewares/ST/BlueNRG-2/hci/controller/bluenrg1_hal_aci.c ****   BLUENRG_memcpy((void *) Data, (const void *) resp.Data, *Data_Length*sizeof(uint8_t));
 492              		.loc 1 134 3 is_stmt 1 view .LVU161
 134:Middlewares/ST/BlueNRG-2/hci/controller/bluenrg1_hal_aci.c ****   BLUENRG_memcpy((void *) Data, (const void *) resp.Data, *Data_Length*sizeof(uint8_t));
ARM GAS  C:\Users\zafee\AppData\Local\Temp\cc9GNLBQ.s 			page 12


 493              		.loc 1 134 18 is_stmt 0 view .LVU162
 494 0060 9DF80520 		ldrb	r2, [sp, #5]	@ zero_extendqisi2
 134:Middlewares/ST/BlueNRG-2/hci/controller/bluenrg1_hal_aci.c ****   BLUENRG_memcpy((void *) Data, (const void *) resp.Data, *Data_Length*sizeof(uint8_t));
 495              		.loc 1 134 16 view .LVU163
 496 0064 3270     		strb	r2, [r6]
 135:Middlewares/ST/BlueNRG-2/hci/controller/bluenrg1_hal_aci.c ****   return BLE_STATUS_SUCCESS;
 497              		.loc 1 135 3 is_stmt 1 view .LVU164
 498 0066 0DF10601 		add	r1, sp, #6
 499 006a 2846     		mov	r0, r5
 500 006c FFF7FEFF 		bl	memcpy
 501              	.LVL33:
 136:Middlewares/ST/BlueNRG-2/hci/controller/bluenrg1_hal_aci.c **** }
 502              		.loc 1 136 3 view .LVU165
 136:Middlewares/ST/BlueNRG-2/hci/controller/bluenrg1_hal_aci.c **** }
 503              		.loc 1 136 10 is_stmt 0 view .LVU166
 504 0070 F2E7     		b	.L14
 505              	.L15:
 130:Middlewares/ST/BlueNRG-2/hci/controller/bluenrg1_hal_aci.c ****   if (resp.Status) {
 506              		.loc 1 130 12 view .LVU167
 507 0072 FF24     		movs	r4, #255
 508 0074 F0E7     		b	.L14
 509              		.cfi_endproc
 510              	.LFE133:
 512              		.section	.text.aci_hal_set_tx_power_level,"ax",%progbits
 513              		.align	1
 514              		.global	aci_hal_set_tx_power_level
 515              		.syntax unified
 516              		.thumb
 517              		.thumb_func
 519              	aci_hal_set_tx_power_level:
 520              	.LVL34:
 521              	.LFB134:
 138:Middlewares/ST/BlueNRG-2/hci/controller/bluenrg1_hal_aci.c **** tBleStatus aci_hal_set_tx_power_level(uint8_t En_High_Power,
 139:Middlewares/ST/BlueNRG-2/hci/controller/bluenrg1_hal_aci.c ****                                       uint8_t PA_Level)
 140:Middlewares/ST/BlueNRG-2/hci/controller/bluenrg1_hal_aci.c **** {
 522              		.loc 1 140 1 is_stmt 1 view -0
 523              		.cfi_startproc
 524              		@ args = 0, pretend = 0, frame = 288
 525              		@ frame_needed = 0, uses_anonymous_args = 0
 526              		.loc 1 140 1 is_stmt 0 view .LVU169
 527 0000 10B5     		push	{r4, lr}
 528              		.cfi_def_cfa_offset 8
 529              		.cfi_offset 4, -8
 530              		.cfi_offset 14, -4
 531 0002 C8B0     		sub	sp, sp, #288
 532              		.cfi_def_cfa_offset 296
 141:Middlewares/ST/BlueNRG-2/hci/controller/bluenrg1_hal_aci.c ****   struct hci_request rq;
 533              		.loc 1 141 3 is_stmt 1 view .LVU170
 142:Middlewares/ST/BlueNRG-2/hci/controller/bluenrg1_hal_aci.c ****   uint8_t cmd_buffer[258];
 534              		.loc 1 142 3 view .LVU171
 143:Middlewares/ST/BlueNRG-2/hci/controller/bluenrg1_hal_aci.c ****   aci_hal_set_tx_power_level_cp0 *cp0 = (aci_hal_set_tx_power_level_cp0*)(cmd_buffer);
 535              		.loc 1 143 3 view .LVU172
 536              	.LVL35:
 144:Middlewares/ST/BlueNRG-2/hci/controller/bluenrg1_hal_aci.c ****   tBleStatus status = 0;
 537              		.loc 1 144 3 view .LVU173
 538              		.loc 1 144 14 is_stmt 0 view .LVU174
 539 0004 0DF10304 		add	r4, sp, #3
ARM GAS  C:\Users\zafee\AppData\Local\Temp\cc9GNLBQ.s 			page 13


 540 0008 0023     		movs	r3, #0
 541 000a 8DF80330 		strb	r3, [sp, #3]
 145:Middlewares/ST/BlueNRG-2/hci/controller/bluenrg1_hal_aci.c ****   uint8_t index_input = 0;
 542              		.loc 1 145 3 is_stmt 1 view .LVU175
 543              	.LVL36:
 146:Middlewares/ST/BlueNRG-2/hci/controller/bluenrg1_hal_aci.c ****   cp0->En_High_Power = htob(En_High_Power, 1);
 544              		.loc 1 146 3 view .LVU176
 545              		.loc 1 146 22 is_stmt 0 view .LVU177
 546 000e 01AA     		add	r2, sp, #4
 547              	.LVL37:
 548              		.loc 1 146 22 view .LVU178
 549 0010 8DF80400 		strb	r0, [sp, #4]
 147:Middlewares/ST/BlueNRG-2/hci/controller/bluenrg1_hal_aci.c ****   index_input += 1;
 550              		.loc 1 147 3 is_stmt 1 view .LVU179
 551              	.LVL38:
 148:Middlewares/ST/BlueNRG-2/hci/controller/bluenrg1_hal_aci.c ****   cp0->PA_Level = htob(PA_Level, 1);
 552              		.loc 1 148 3 view .LVU180
 553              		.loc 1 148 17 is_stmt 0 view .LVU181
 554 0014 8DF80510 		strb	r1, [sp, #5]
 149:Middlewares/ST/BlueNRG-2/hci/controller/bluenrg1_hal_aci.c ****   index_input += 1;
 555              		.loc 1 149 3 is_stmt 1 view .LVU182
 556              	.LVL39:
 150:Middlewares/ST/BlueNRG-2/hci/controller/bluenrg1_hal_aci.c ****   BLUENRG_memset(&rq, 0, sizeof(rq));
 557              		.loc 1 150 3 view .LVU183
 558 0018 4293     		str	r3, [sp, #264]
 559 001a 4393     		str	r3, [sp, #268]
 560 001c 4493     		str	r3, [sp, #272]
 561 001e 4593     		str	r3, [sp, #276]
 562 0020 4693     		str	r3, [sp, #280]
 563 0022 4793     		str	r3, [sp, #284]
 151:Middlewares/ST/BlueNRG-2/hci/controller/bluenrg1_hal_aci.c ****   rq.ogf = 0x3f;
 564              		.loc 1 151 3 view .LVU184
 565              		.loc 1 151 10 is_stmt 0 view .LVU185
 566 0024 3F21     		movs	r1, #63
 567              	.LVL40:
 568              		.loc 1 151 10 view .LVU186
 569 0026 ADF80811 		strh	r1, [sp, #264]	@ movhi
 152:Middlewares/ST/BlueNRG-2/hci/controller/bluenrg1_hal_aci.c ****   rq.ocf = 0x00f;
 570              		.loc 1 152 3 is_stmt 1 view .LVU187
 571              		.loc 1 152 10 is_stmt 0 view .LVU188
 572 002a 0F21     		movs	r1, #15
 573 002c ADF80A11 		strh	r1, [sp, #266]	@ movhi
 153:Middlewares/ST/BlueNRG-2/hci/controller/bluenrg1_hal_aci.c ****   rq.cparam = cmd_buffer;
 574              		.loc 1 153 3 is_stmt 1 view .LVU189
 575              		.loc 1 153 13 is_stmt 0 view .LVU190
 576 0030 4492     		str	r2, [sp, #272]
 154:Middlewares/ST/BlueNRG-2/hci/controller/bluenrg1_hal_aci.c ****   rq.clen = index_input;
 577              		.loc 1 154 3 is_stmt 1 view .LVU191
 578              		.loc 1 154 11 is_stmt 0 view .LVU192
 579 0032 0222     		movs	r2, #2
 580              	.LVL41:
 581              		.loc 1 154 11 view .LVU193
 582 0034 4592     		str	r2, [sp, #276]
 155:Middlewares/ST/BlueNRG-2/hci/controller/bluenrg1_hal_aci.c ****   rq.rparam = &status;
 583              		.loc 1 155 3 is_stmt 1 view .LVU194
 584              		.loc 1 155 13 is_stmt 0 view .LVU195
 585 0036 4694     		str	r4, [sp, #280]
ARM GAS  C:\Users\zafee\AppData\Local\Temp\cc9GNLBQ.s 			page 14


 156:Middlewares/ST/BlueNRG-2/hci/controller/bluenrg1_hal_aci.c ****   rq.rlen = 1;
 586              		.loc 1 156 3 is_stmt 1 view .LVU196
 587              		.loc 1 156 11 is_stmt 0 view .LVU197
 588 0038 0122     		movs	r2, #1
 589 003a 4792     		str	r2, [sp, #284]
 157:Middlewares/ST/BlueNRG-2/hci/controller/bluenrg1_hal_aci.c ****   if (hci_send_req(&rq, FALSE) < 0)
 590              		.loc 1 157 3 is_stmt 1 view .LVU198
 591              		.loc 1 157 7 is_stmt 0 view .LVU199
 592 003c 1946     		mov	r1, r3
 593 003e 42A8     		add	r0, sp, #264
 594              	.LVL42:
 595              		.loc 1 157 7 view .LVU200
 596 0040 FFF7FEFF 		bl	hci_send_req
 597              	.LVL43:
 598              		.loc 1 157 6 view .LVU201
 599 0044 0028     		cmp	r0, #0
 600 0046 03DB     		blt	.L20
 158:Middlewares/ST/BlueNRG-2/hci/controller/bluenrg1_hal_aci.c ****     return BLE_STATUS_TIMEOUT;
 159:Middlewares/ST/BlueNRG-2/hci/controller/bluenrg1_hal_aci.c ****   if (status) {
 601              		.loc 1 159 3 is_stmt 1 view .LVU202
 602              		.loc 1 159 7 is_stmt 0 view .LVU203
 603 0048 9DF80300 		ldrb	r0, [sp, #3]	@ zero_extendqisi2
 604              	.L19:
 160:Middlewares/ST/BlueNRG-2/hci/controller/bluenrg1_hal_aci.c ****     return status;
 161:Middlewares/ST/BlueNRG-2/hci/controller/bluenrg1_hal_aci.c ****   }
 162:Middlewares/ST/BlueNRG-2/hci/controller/bluenrg1_hal_aci.c ****   return BLE_STATUS_SUCCESS;
 163:Middlewares/ST/BlueNRG-2/hci/controller/bluenrg1_hal_aci.c **** }
 605              		.loc 1 163 1 view .LVU204
 606 004c 48B0     		add	sp, sp, #288
 607              		.cfi_remember_state
 608              		.cfi_def_cfa_offset 8
 609              		@ sp needed
 610 004e 10BD     		pop	{r4, pc}
 611              	.LVL44:
 612              	.L20:
 613              		.cfi_restore_state
 158:Middlewares/ST/BlueNRG-2/hci/controller/bluenrg1_hal_aci.c ****     return BLE_STATUS_TIMEOUT;
 614              		.loc 1 158 12 view .LVU205
 615 0050 FF20     		movs	r0, #255
 616 0052 FBE7     		b	.L19
 617              		.cfi_endproc
 618              	.LFE134:
 620              		.section	.text.aci_hal_le_tx_test_packet_number,"ax",%progbits
 621              		.align	1
 622              		.global	aci_hal_le_tx_test_packet_number
 623              		.syntax unified
 624              		.thumb
 625              		.thumb_func
 627              	aci_hal_le_tx_test_packet_number:
 628              	.LVL45:
 629              	.LFB135:
 164:Middlewares/ST/BlueNRG-2/hci/controller/bluenrg1_hal_aci.c **** tBleStatus aci_hal_le_tx_test_packet_number(uint32_t *Number_Of_Packets)
 165:Middlewares/ST/BlueNRG-2/hci/controller/bluenrg1_hal_aci.c **** {
 630              		.loc 1 165 1 is_stmt 1 view -0
 631              		.cfi_startproc
 632              		@ args = 0, pretend = 0, frame = 32
 633              		@ frame_needed = 0, uses_anonymous_args = 0
ARM GAS  C:\Users\zafee\AppData\Local\Temp\cc9GNLBQ.s 			page 15


 634              		.loc 1 165 1 is_stmt 0 view .LVU207
 635 0000 10B5     		push	{r4, lr}
 636              		.cfi_def_cfa_offset 8
 637              		.cfi_offset 4, -8
 638              		.cfi_offset 14, -4
 639 0002 88B0     		sub	sp, sp, #32
 640              		.cfi_def_cfa_offset 40
 641 0004 0446     		mov	r4, r0
 166:Middlewares/ST/BlueNRG-2/hci/controller/bluenrg1_hal_aci.c ****   struct hci_request rq;
 642              		.loc 1 166 3 is_stmt 1 view .LVU208
 167:Middlewares/ST/BlueNRG-2/hci/controller/bluenrg1_hal_aci.c ****   aci_hal_le_tx_test_packet_number_rp0 resp;
 643              		.loc 1 167 3 view .LVU209
 168:Middlewares/ST/BlueNRG-2/hci/controller/bluenrg1_hal_aci.c ****   BLUENRG_memset(&resp, 0, sizeof(resp));
 644              		.loc 1 168 3 view .LVU210
 645 0006 0021     		movs	r1, #0
 646 0008 0091     		str	r1, [sp]
 647 000a 8DF80410 		strb	r1, [sp, #4]
 169:Middlewares/ST/BlueNRG-2/hci/controller/bluenrg1_hal_aci.c ****   BLUENRG_memset(&rq, 0, sizeof(rq));
 648              		.loc 1 169 3 view .LVU211
 649 000e 0291     		str	r1, [sp, #8]
 650 0010 0391     		str	r1, [sp, #12]
 651 0012 0491     		str	r1, [sp, #16]
 652 0014 0591     		str	r1, [sp, #20]
 653 0016 0691     		str	r1, [sp, #24]
 654 0018 0791     		str	r1, [sp, #28]
 170:Middlewares/ST/BlueNRG-2/hci/controller/bluenrg1_hal_aci.c ****   rq.ogf = 0x3f;
 655              		.loc 1 170 3 view .LVU212
 656              		.loc 1 170 10 is_stmt 0 view .LVU213
 657 001a 3F23     		movs	r3, #63
 658 001c ADF80830 		strh	r3, [sp, #8]	@ movhi
 171:Middlewares/ST/BlueNRG-2/hci/controller/bluenrg1_hal_aci.c ****   rq.ocf = 0x014;
 659              		.loc 1 171 3 is_stmt 1 view .LVU214
 660              		.loc 1 171 10 is_stmt 0 view .LVU215
 661 0020 1423     		movs	r3, #20
 662 0022 ADF80A30 		strh	r3, [sp, #10]	@ movhi
 172:Middlewares/ST/BlueNRG-2/hci/controller/bluenrg1_hal_aci.c ****   rq.rparam = &resp;
 663              		.loc 1 172 3 is_stmt 1 view .LVU216
 664              		.loc 1 172 13 is_stmt 0 view .LVU217
 665 0026 CDF818D0 		str	sp, [sp, #24]
 173:Middlewares/ST/BlueNRG-2/hci/controller/bluenrg1_hal_aci.c ****   rq.rlen = sizeof(resp);
 666              		.loc 1 173 3 is_stmt 1 view .LVU218
 667              		.loc 1 173 11 is_stmt 0 view .LVU219
 668 002a 0523     		movs	r3, #5
 669 002c 0793     		str	r3, [sp, #28]
 174:Middlewares/ST/BlueNRG-2/hci/controller/bluenrg1_hal_aci.c ****   if (hci_send_req(&rq, FALSE) < 0)
 670              		.loc 1 174 3 is_stmt 1 view .LVU220
 671              		.loc 1 174 7 is_stmt 0 view .LVU221
 672 002e 02A8     		add	r0, sp, #8
 673              	.LVL46:
 674              		.loc 1 174 7 view .LVU222
 675 0030 FFF7FEFF 		bl	hci_send_req
 676              	.LVL47:
 677              		.loc 1 174 6 view .LVU223
 678 0034 0028     		cmp	r0, #0
 679 0036 07DB     		blt	.L24
 175:Middlewares/ST/BlueNRG-2/hci/controller/bluenrg1_hal_aci.c ****     return BLE_STATUS_TIMEOUT;
 176:Middlewares/ST/BlueNRG-2/hci/controller/bluenrg1_hal_aci.c ****   if (resp.Status) {
ARM GAS  C:\Users\zafee\AppData\Local\Temp\cc9GNLBQ.s 			page 16


 680              		.loc 1 176 3 is_stmt 1 view .LVU224
 681              		.loc 1 176 11 is_stmt 0 view .LVU225
 682 0038 9DF80000 		ldrb	r0, [sp]	@ zero_extendqisi2
 683              		.loc 1 176 6 view .LVU226
 684 003c 10B9     		cbnz	r0, .L23
 177:Middlewares/ST/BlueNRG-2/hci/controller/bluenrg1_hal_aci.c ****     return resp.Status;
 178:Middlewares/ST/BlueNRG-2/hci/controller/bluenrg1_hal_aci.c ****   }
 179:Middlewares/ST/BlueNRG-2/hci/controller/bluenrg1_hal_aci.c ****   *Number_Of_Packets = btoh(resp.Number_Of_Packets, 4);
 685              		.loc 1 179 3 is_stmt 1 view .LVU227
 686              		.loc 1 179 24 is_stmt 0 view .LVU228
 687 003e DDF80130 		ldr	r3, [sp, #1]	@ unaligned
 688              		.loc 1 179 22 view .LVU229
 689 0042 2360     		str	r3, [r4]
 180:Middlewares/ST/BlueNRG-2/hci/controller/bluenrg1_hal_aci.c ****   return BLE_STATUS_SUCCESS;
 690              		.loc 1 180 3 is_stmt 1 view .LVU230
 691              	.L23:
 181:Middlewares/ST/BlueNRG-2/hci/controller/bluenrg1_hal_aci.c **** }
 692              		.loc 1 181 1 is_stmt 0 view .LVU231
 693 0044 08B0     		add	sp, sp, #32
 694              		.cfi_remember_state
 695              		.cfi_def_cfa_offset 8
 696              		@ sp needed
 697 0046 10BD     		pop	{r4, pc}
 698              	.LVL48:
 699              	.L24:
 700              		.cfi_restore_state
 175:Middlewares/ST/BlueNRG-2/hci/controller/bluenrg1_hal_aci.c ****   if (resp.Status) {
 701              		.loc 1 175 12 view .LVU232
 702 0048 FF20     		movs	r0, #255
 703 004a FBE7     		b	.L23
 704              		.cfi_endproc
 705              	.LFE135:
 707              		.section	.text.aci_hal_tone_start,"ax",%progbits
 708              		.align	1
 709              		.global	aci_hal_tone_start
 710              		.syntax unified
 711              		.thumb
 712              		.thumb_func
 714              	aci_hal_tone_start:
 715              	.LVL49:
 716              	.LFB136:
 182:Middlewares/ST/BlueNRG-2/hci/controller/bluenrg1_hal_aci.c **** tBleStatus aci_hal_tone_start(uint8_t RF_Channel,
 183:Middlewares/ST/BlueNRG-2/hci/controller/bluenrg1_hal_aci.c ****                               uint8_t Offset)
 184:Middlewares/ST/BlueNRG-2/hci/controller/bluenrg1_hal_aci.c **** {
 717              		.loc 1 184 1 is_stmt 1 view -0
 718              		.cfi_startproc
 719              		@ args = 0, pretend = 0, frame = 288
 720              		@ frame_needed = 0, uses_anonymous_args = 0
 721              		.loc 1 184 1 is_stmt 0 view .LVU234
 722 0000 10B5     		push	{r4, lr}
 723              		.cfi_def_cfa_offset 8
 724              		.cfi_offset 4, -8
 725              		.cfi_offset 14, -4
 726 0002 C8B0     		sub	sp, sp, #288
 727              		.cfi_def_cfa_offset 296
 185:Middlewares/ST/BlueNRG-2/hci/controller/bluenrg1_hal_aci.c ****   struct hci_request rq;
 728              		.loc 1 185 3 is_stmt 1 view .LVU235
ARM GAS  C:\Users\zafee\AppData\Local\Temp\cc9GNLBQ.s 			page 17


 186:Middlewares/ST/BlueNRG-2/hci/controller/bluenrg1_hal_aci.c ****   uint8_t cmd_buffer[258];
 729              		.loc 1 186 3 view .LVU236
 187:Middlewares/ST/BlueNRG-2/hci/controller/bluenrg1_hal_aci.c ****   aci_hal_tone_start_cp0 *cp0 = (aci_hal_tone_start_cp0*)(cmd_buffer);
 730              		.loc 1 187 3 view .LVU237
 731              	.LVL50:
 188:Middlewares/ST/BlueNRG-2/hci/controller/bluenrg1_hal_aci.c ****   tBleStatus status = 0;
 732              		.loc 1 188 3 view .LVU238
 733              		.loc 1 188 14 is_stmt 0 view .LVU239
 734 0004 0DF10304 		add	r4, sp, #3
 735 0008 0023     		movs	r3, #0
 736 000a 8DF80330 		strb	r3, [sp, #3]
 189:Middlewares/ST/BlueNRG-2/hci/controller/bluenrg1_hal_aci.c ****   uint8_t index_input = 0;
 737              		.loc 1 189 3 is_stmt 1 view .LVU240
 738              	.LVL51:
 190:Middlewares/ST/BlueNRG-2/hci/controller/bluenrg1_hal_aci.c ****   cp0->RF_Channel = htob(RF_Channel, 1);
 739              		.loc 1 190 3 view .LVU241
 740              		.loc 1 190 19 is_stmt 0 view .LVU242
 741 000e 01AA     		add	r2, sp, #4
 742              	.LVL52:
 743              		.loc 1 190 19 view .LVU243
 744 0010 8DF80400 		strb	r0, [sp, #4]
 191:Middlewares/ST/BlueNRG-2/hci/controller/bluenrg1_hal_aci.c ****   index_input += 1;
 745              		.loc 1 191 3 is_stmt 1 view .LVU244
 746              	.LVL53:
 192:Middlewares/ST/BlueNRG-2/hci/controller/bluenrg1_hal_aci.c ****   cp0->Offset = htob(Offset, 1);
 747              		.loc 1 192 3 view .LVU245
 748              		.loc 1 192 15 is_stmt 0 view .LVU246
 749 0014 8DF80510 		strb	r1, [sp, #5]
 193:Middlewares/ST/BlueNRG-2/hci/controller/bluenrg1_hal_aci.c ****   index_input += 1;
 750              		.loc 1 193 3 is_stmt 1 view .LVU247
 751              	.LVL54:
 194:Middlewares/ST/BlueNRG-2/hci/controller/bluenrg1_hal_aci.c ****   BLUENRG_memset(&rq, 0, sizeof(rq));
 752              		.loc 1 194 3 view .LVU248
 753 0018 4293     		str	r3, [sp, #264]
 754 001a 4393     		str	r3, [sp, #268]
 755 001c 4493     		str	r3, [sp, #272]
 756 001e 4593     		str	r3, [sp, #276]
 757 0020 4693     		str	r3, [sp, #280]
 758 0022 4793     		str	r3, [sp, #284]
 195:Middlewares/ST/BlueNRG-2/hci/controller/bluenrg1_hal_aci.c ****   rq.ogf = 0x3f;
 759              		.loc 1 195 3 view .LVU249
 760              		.loc 1 195 10 is_stmt 0 view .LVU250
 761 0024 3F21     		movs	r1, #63
 762              	.LVL55:
 763              		.loc 1 195 10 view .LVU251
 764 0026 ADF80811 		strh	r1, [sp, #264]	@ movhi
 196:Middlewares/ST/BlueNRG-2/hci/controller/bluenrg1_hal_aci.c ****   rq.ocf = 0x015;
 765              		.loc 1 196 3 is_stmt 1 view .LVU252
 766              		.loc 1 196 10 is_stmt 0 view .LVU253
 767 002a 1521     		movs	r1, #21
 768 002c ADF80A11 		strh	r1, [sp, #266]	@ movhi
 197:Middlewares/ST/BlueNRG-2/hci/controller/bluenrg1_hal_aci.c ****   rq.cparam = cmd_buffer;
 769              		.loc 1 197 3 is_stmt 1 view .LVU254
 770              		.loc 1 197 13 is_stmt 0 view .LVU255
 771 0030 4492     		str	r2, [sp, #272]
 198:Middlewares/ST/BlueNRG-2/hci/controller/bluenrg1_hal_aci.c ****   rq.clen = index_input;
 772              		.loc 1 198 3 is_stmt 1 view .LVU256
ARM GAS  C:\Users\zafee\AppData\Local\Temp\cc9GNLBQ.s 			page 18


 773              		.loc 1 198 11 is_stmt 0 view .LVU257
 774 0032 0222     		movs	r2, #2
 775              	.LVL56:
 776              		.loc 1 198 11 view .LVU258
 777 0034 4592     		str	r2, [sp, #276]
 199:Middlewares/ST/BlueNRG-2/hci/controller/bluenrg1_hal_aci.c ****   rq.rparam = &status;
 778              		.loc 1 199 3 is_stmt 1 view .LVU259
 779              		.loc 1 199 13 is_stmt 0 view .LVU260
 780 0036 4694     		str	r4, [sp, #280]
 200:Middlewares/ST/BlueNRG-2/hci/controller/bluenrg1_hal_aci.c ****   rq.rlen = 1;
 781              		.loc 1 200 3 is_stmt 1 view .LVU261
 782              		.loc 1 200 11 is_stmt 0 view .LVU262
 783 0038 0122     		movs	r2, #1
 784 003a 4792     		str	r2, [sp, #284]
 201:Middlewares/ST/BlueNRG-2/hci/controller/bluenrg1_hal_aci.c ****   if (hci_send_req(&rq, FALSE) < 0)
 785              		.loc 1 201 3 is_stmt 1 view .LVU263
 786              		.loc 1 201 7 is_stmt 0 view .LVU264
 787 003c 1946     		mov	r1, r3
 788 003e 42A8     		add	r0, sp, #264
 789              	.LVL57:
 790              		.loc 1 201 7 view .LVU265
 791 0040 FFF7FEFF 		bl	hci_send_req
 792              	.LVL58:
 793              		.loc 1 201 6 view .LVU266
 794 0044 0028     		cmp	r0, #0
 795 0046 03DB     		blt	.L28
 202:Middlewares/ST/BlueNRG-2/hci/controller/bluenrg1_hal_aci.c ****     return BLE_STATUS_TIMEOUT;
 203:Middlewares/ST/BlueNRG-2/hci/controller/bluenrg1_hal_aci.c ****   if (status) {
 796              		.loc 1 203 3 is_stmt 1 view .LVU267
 797              		.loc 1 203 7 is_stmt 0 view .LVU268
 798 0048 9DF80300 		ldrb	r0, [sp, #3]	@ zero_extendqisi2
 799              	.L27:
 204:Middlewares/ST/BlueNRG-2/hci/controller/bluenrg1_hal_aci.c ****     return status;
 205:Middlewares/ST/BlueNRG-2/hci/controller/bluenrg1_hal_aci.c ****   }
 206:Middlewares/ST/BlueNRG-2/hci/controller/bluenrg1_hal_aci.c ****   return BLE_STATUS_SUCCESS;
 207:Middlewares/ST/BlueNRG-2/hci/controller/bluenrg1_hal_aci.c **** }
 800              		.loc 1 207 1 view .LVU269
 801 004c 48B0     		add	sp, sp, #288
 802              		.cfi_remember_state
 803              		.cfi_def_cfa_offset 8
 804              		@ sp needed
 805 004e 10BD     		pop	{r4, pc}
 806              	.LVL59:
 807              	.L28:
 808              		.cfi_restore_state
 202:Middlewares/ST/BlueNRG-2/hci/controller/bluenrg1_hal_aci.c ****     return BLE_STATUS_TIMEOUT;
 809              		.loc 1 202 12 view .LVU270
 810 0050 FF20     		movs	r0, #255
 811 0052 FBE7     		b	.L27
 812              		.cfi_endproc
 813              	.LFE136:
 815              		.section	.text.aci_hal_tone_stop,"ax",%progbits
 816              		.align	1
 817              		.global	aci_hal_tone_stop
 818              		.syntax unified
 819              		.thumb
 820              		.thumb_func
ARM GAS  C:\Users\zafee\AppData\Local\Temp\cc9GNLBQ.s 			page 19


 822              	aci_hal_tone_stop:
 823              	.LFB137:
 208:Middlewares/ST/BlueNRG-2/hci/controller/bluenrg1_hal_aci.c **** tBleStatus aci_hal_tone_stop(void)
 209:Middlewares/ST/BlueNRG-2/hci/controller/bluenrg1_hal_aci.c **** {
 824              		.loc 1 209 1 is_stmt 1 view -0
 825              		.cfi_startproc
 826              		@ args = 0, pretend = 0, frame = 32
 827              		@ frame_needed = 0, uses_anonymous_args = 0
 828 0000 00B5     		push	{lr}
 829              		.cfi_def_cfa_offset 4
 830              		.cfi_offset 14, -4
 831 0002 89B0     		sub	sp, sp, #36
 832              		.cfi_def_cfa_offset 40
 210:Middlewares/ST/BlueNRG-2/hci/controller/bluenrg1_hal_aci.c ****   struct hci_request rq;
 833              		.loc 1 210 3 view .LVU272
 211:Middlewares/ST/BlueNRG-2/hci/controller/bluenrg1_hal_aci.c ****   tBleStatus status = 0;
 834              		.loc 1 211 3 view .LVU273
 835              		.loc 1 211 14 is_stmt 0 view .LVU274
 836 0004 0021     		movs	r1, #0
 837 0006 8DF80710 		strb	r1, [sp, #7]
 212:Middlewares/ST/BlueNRG-2/hci/controller/bluenrg1_hal_aci.c ****   BLUENRG_memset(&rq, 0, sizeof(rq));
 838              		.loc 1 212 3 is_stmt 1 view .LVU275
 839 000a 0291     		str	r1, [sp, #8]
 840 000c 0391     		str	r1, [sp, #12]
 841 000e 0491     		str	r1, [sp, #16]
 842 0010 0591     		str	r1, [sp, #20]
 843 0012 0691     		str	r1, [sp, #24]
 844 0014 0791     		str	r1, [sp, #28]
 213:Middlewares/ST/BlueNRG-2/hci/controller/bluenrg1_hal_aci.c ****   rq.ogf = 0x3f;
 845              		.loc 1 213 3 view .LVU276
 846              		.loc 1 213 10 is_stmt 0 view .LVU277
 847 0016 3F23     		movs	r3, #63
 848 0018 ADF80830 		strh	r3, [sp, #8]	@ movhi
 214:Middlewares/ST/BlueNRG-2/hci/controller/bluenrg1_hal_aci.c ****   rq.ocf = 0x016;
 849              		.loc 1 214 3 is_stmt 1 view .LVU278
 850              		.loc 1 214 10 is_stmt 0 view .LVU279
 851 001c 1623     		movs	r3, #22
 852 001e ADF80A30 		strh	r3, [sp, #10]	@ movhi
 215:Middlewares/ST/BlueNRG-2/hci/controller/bluenrg1_hal_aci.c ****   rq.rparam = &status;
 853              		.loc 1 215 3 is_stmt 1 view .LVU280
 854              		.loc 1 215 13 is_stmt 0 view .LVU281
 855 0022 0DF10703 		add	r3, sp, #7
 856 0026 0693     		str	r3, [sp, #24]
 216:Middlewares/ST/BlueNRG-2/hci/controller/bluenrg1_hal_aci.c ****   rq.rlen = 1;
 857              		.loc 1 216 3 is_stmt 1 view .LVU282
 858              		.loc 1 216 11 is_stmt 0 view .LVU283
 859 0028 0123     		movs	r3, #1
 860 002a 0793     		str	r3, [sp, #28]
 217:Middlewares/ST/BlueNRG-2/hci/controller/bluenrg1_hal_aci.c ****   if (hci_send_req(&rq, FALSE) < 0)
 861              		.loc 1 217 3 is_stmt 1 view .LVU284
 862              		.loc 1 217 7 is_stmt 0 view .LVU285
 863 002c 02A8     		add	r0, sp, #8
 864 002e FFF7FEFF 		bl	hci_send_req
 865              	.LVL60:
 866              		.loc 1 217 6 view .LVU286
 867 0032 0028     		cmp	r0, #0
 868 0034 04DB     		blt	.L32
ARM GAS  C:\Users\zafee\AppData\Local\Temp\cc9GNLBQ.s 			page 20


 218:Middlewares/ST/BlueNRG-2/hci/controller/bluenrg1_hal_aci.c ****     return BLE_STATUS_TIMEOUT;
 219:Middlewares/ST/BlueNRG-2/hci/controller/bluenrg1_hal_aci.c ****   if (status) {
 869              		.loc 1 219 3 is_stmt 1 view .LVU287
 870              		.loc 1 219 7 is_stmt 0 view .LVU288
 871 0036 9DF80700 		ldrb	r0, [sp, #7]	@ zero_extendqisi2
 872              	.L31:
 220:Middlewares/ST/BlueNRG-2/hci/controller/bluenrg1_hal_aci.c ****     return status;
 221:Middlewares/ST/BlueNRG-2/hci/controller/bluenrg1_hal_aci.c ****   }
 222:Middlewares/ST/BlueNRG-2/hci/controller/bluenrg1_hal_aci.c ****   return BLE_STATUS_SUCCESS;
 223:Middlewares/ST/BlueNRG-2/hci/controller/bluenrg1_hal_aci.c **** }
 873              		.loc 1 223 1 view .LVU289
 874 003a 09B0     		add	sp, sp, #36
 875              		.cfi_remember_state
 876              		.cfi_def_cfa_offset 4
 877              		@ sp needed
 878 003c 5DF804FB 		ldr	pc, [sp], #4
 879              	.L32:
 880              		.cfi_restore_state
 218:Middlewares/ST/BlueNRG-2/hci/controller/bluenrg1_hal_aci.c ****     return BLE_STATUS_TIMEOUT;
 881              		.loc 1 218 12 view .LVU290
 882 0040 FF20     		movs	r0, #255
 883 0042 FAE7     		b	.L31
 884              		.cfi_endproc
 885              	.LFE137:
 887              		.section	.text.aci_hal_get_link_status,"ax",%progbits
 888              		.align	1
 889              		.global	aci_hal_get_link_status
 890              		.syntax unified
 891              		.thumb
 892              		.thumb_func
 894              	aci_hal_get_link_status:
 895              	.LVL61:
 896              	.LFB138:
 224:Middlewares/ST/BlueNRG-2/hci/controller/bluenrg1_hal_aci.c **** tBleStatus aci_hal_get_link_status(uint8_t Link_Status[8],
 225:Middlewares/ST/BlueNRG-2/hci/controller/bluenrg1_hal_aci.c ****                                    uint16_t Link_Connection_Handle[16 / 2])
 226:Middlewares/ST/BlueNRG-2/hci/controller/bluenrg1_hal_aci.c **** {
 897              		.loc 1 226 1 is_stmt 1 view -0
 898              		.cfi_startproc
 899              		@ args = 0, pretend = 0, frame = 56
 900              		@ frame_needed = 0, uses_anonymous_args = 0
 901              		.loc 1 226 1 is_stmt 0 view .LVU292
 902 0000 30B5     		push	{r4, r5, lr}
 903              		.cfi_def_cfa_offset 12
 904              		.cfi_offset 4, -12
 905              		.cfi_offset 5, -8
 906              		.cfi_offset 14, -4
 907 0002 8FB0     		sub	sp, sp, #60
 908              		.cfi_def_cfa_offset 72
 909 0004 0546     		mov	r5, r0
 910 0006 0C46     		mov	r4, r1
 227:Middlewares/ST/BlueNRG-2/hci/controller/bluenrg1_hal_aci.c ****   struct hci_request rq;
 911              		.loc 1 227 3 is_stmt 1 view .LVU293
 228:Middlewares/ST/BlueNRG-2/hci/controller/bluenrg1_hal_aci.c ****   aci_hal_get_link_status_rp0 resp;
 912              		.loc 1 228 3 view .LVU294
 229:Middlewares/ST/BlueNRG-2/hci/controller/bluenrg1_hal_aci.c ****   BLUENRG_memset(&resp, 0, sizeof(resp));
 913              		.loc 1 229 3 view .LVU295
 914 0008 01AB     		add	r3, sp, #4
ARM GAS  C:\Users\zafee\AppData\Local\Temp\cc9GNLBQ.s 			page 21


 915 000a 0021     		movs	r1, #0
 916              	.LVL62:
 917              		.loc 1 229 3 is_stmt 0 view .LVU296
 918 000c 0191     		str	r1, [sp, #4]
 919 000e 0291     		str	r1, [sp, #8]
 920 0010 0391     		str	r1, [sp, #12]
 921 0012 0491     		str	r1, [sp, #16]
 922 0014 0591     		str	r1, [sp, #20]
 923 0016 0691     		str	r1, [sp, #24]
 924 0018 8DF81C10 		strb	r1, [sp, #28]
 230:Middlewares/ST/BlueNRG-2/hci/controller/bluenrg1_hal_aci.c ****   BLUENRG_memset(&rq, 0, sizeof(rq));
 925              		.loc 1 230 3 is_stmt 1 view .LVU297
 926 001c 0891     		str	r1, [sp, #32]
 927 001e 0991     		str	r1, [sp, #36]
 928 0020 0A91     		str	r1, [sp, #40]
 929 0022 0B91     		str	r1, [sp, #44]
 930 0024 0C91     		str	r1, [sp, #48]
 931 0026 0D91     		str	r1, [sp, #52]
 231:Middlewares/ST/BlueNRG-2/hci/controller/bluenrg1_hal_aci.c ****   rq.ogf = 0x3f;
 932              		.loc 1 231 3 view .LVU298
 933              		.loc 1 231 10 is_stmt 0 view .LVU299
 934 0028 3F22     		movs	r2, #63
 935 002a ADF82020 		strh	r2, [sp, #32]	@ movhi
 232:Middlewares/ST/BlueNRG-2/hci/controller/bluenrg1_hal_aci.c ****   rq.ocf = 0x017;
 936              		.loc 1 232 3 is_stmt 1 view .LVU300
 937              		.loc 1 232 10 is_stmt 0 view .LVU301
 938 002e 1722     		movs	r2, #23
 939 0030 ADF82220 		strh	r2, [sp, #34]	@ movhi
 233:Middlewares/ST/BlueNRG-2/hci/controller/bluenrg1_hal_aci.c ****   rq.rparam = &resp;
 940              		.loc 1 233 3 is_stmt 1 view .LVU302
 941              		.loc 1 233 13 is_stmt 0 view .LVU303
 942 0034 0C93     		str	r3, [sp, #48]
 234:Middlewares/ST/BlueNRG-2/hci/controller/bluenrg1_hal_aci.c ****   rq.rlen = sizeof(resp);
 943              		.loc 1 234 3 is_stmt 1 view .LVU304
 944              		.loc 1 234 11 is_stmt 0 view .LVU305
 945 0036 1923     		movs	r3, #25
 946 0038 0D93     		str	r3, [sp, #52]
 235:Middlewares/ST/BlueNRG-2/hci/controller/bluenrg1_hal_aci.c ****   if (hci_send_req(&rq, FALSE) < 0)
 947              		.loc 1 235 3 is_stmt 1 view .LVU306
 948              		.loc 1 235 7 is_stmt 0 view .LVU307
 949 003a 08A8     		add	r0, sp, #32
 950              	.LVL63:
 951              		.loc 1 235 7 view .LVU308
 952 003c FFF7FEFF 		bl	hci_send_req
 953              	.LVL64:
 954              		.loc 1 235 6 view .LVU309
 955 0040 0028     		cmp	r0, #0
 956 0042 17DB     		blt	.L36
 236:Middlewares/ST/BlueNRG-2/hci/controller/bluenrg1_hal_aci.c ****     return BLE_STATUS_TIMEOUT;
 237:Middlewares/ST/BlueNRG-2/hci/controller/bluenrg1_hal_aci.c ****   if (resp.Status) {
 957              		.loc 1 237 3 is_stmt 1 view .LVU310
 958              		.loc 1 237 11 is_stmt 0 view .LVU311
 959 0044 9DF80400 		ldrb	r0, [sp, #4]	@ zero_extendqisi2
 960              		.loc 1 237 6 view .LVU312
 961 0048 08B1     		cbz	r0, .L38
 962              	.LVL65:
 963              	.L35:
ARM GAS  C:\Users\zafee\AppData\Local\Temp\cc9GNLBQ.s 			page 22


 238:Middlewares/ST/BlueNRG-2/hci/controller/bluenrg1_hal_aci.c ****     return resp.Status;
 239:Middlewares/ST/BlueNRG-2/hci/controller/bluenrg1_hal_aci.c ****   }
 240:Middlewares/ST/BlueNRG-2/hci/controller/bluenrg1_hal_aci.c ****   BLUENRG_memcpy((void *) Link_Status, (const void *) resp.Link_Status, 8);
 241:Middlewares/ST/BlueNRG-2/hci/controller/bluenrg1_hal_aci.c ****   BLUENRG_memcpy((void *) Link_Connection_Handle, (const void *) resp.Link_Connection_Handle, 16);
 242:Middlewares/ST/BlueNRG-2/hci/controller/bluenrg1_hal_aci.c ****   return BLE_STATUS_SUCCESS;
 243:Middlewares/ST/BlueNRG-2/hci/controller/bluenrg1_hal_aci.c **** }
 964              		.loc 1 243 1 view .LVU313
 965 004a 0FB0     		add	sp, sp, #60
 966              		.cfi_remember_state
 967              		.cfi_def_cfa_offset 12
 968              		@ sp needed
 969 004c 30BD     		pop	{r4, r5, pc}
 970              	.LVL66:
 971              	.L38:
 972              		.cfi_restore_state
 240:Middlewares/ST/BlueNRG-2/hci/controller/bluenrg1_hal_aci.c ****   BLUENRG_memcpy((void *) Link_Connection_Handle, (const void *) resp.Link_Connection_Handle, 16);
 973              		.loc 1 240 3 is_stmt 1 view .LVU314
 974 004e DDF80520 		ldr	r2, [sp, #5]	@ unaligned
 975 0052 DDF80930 		ldr	r3, [sp, #9]	@ unaligned
 976 0056 2A60     		str	r2, [r5]	@ unaligned
 977 0058 6B60     		str	r3, [r5, #4]	@ unaligned
 241:Middlewares/ST/BlueNRG-2/hci/controller/bluenrg1_hal_aci.c ****   return BLE_STATUS_SUCCESS;
 978              		.loc 1 241 3 view .LVU315
 979 005a DDF80D50 		ldr	r5, [sp, #13]	@ unaligned
 980              	.LVL67:
 241:Middlewares/ST/BlueNRG-2/hci/controller/bluenrg1_hal_aci.c ****   return BLE_STATUS_SUCCESS;
 981              		.loc 1 241 3 is_stmt 0 view .LVU316
 982 005e DDF81110 		ldr	r1, [sp, #17]	@ unaligned
 983 0062 DDF81520 		ldr	r2, [sp, #21]	@ unaligned
 984 0066 DDF81930 		ldr	r3, [sp, #25]	@ unaligned
 985 006a 2560     		str	r5, [r4]	@ unaligned
 986 006c 6160     		str	r1, [r4, #4]	@ unaligned
 987 006e A260     		str	r2, [r4, #8]	@ unaligned
 988 0070 E360     		str	r3, [r4, #12]	@ unaligned
 242:Middlewares/ST/BlueNRG-2/hci/controller/bluenrg1_hal_aci.c **** }
 989              		.loc 1 242 3 is_stmt 1 view .LVU317
 242:Middlewares/ST/BlueNRG-2/hci/controller/bluenrg1_hal_aci.c **** }
 990              		.loc 1 242 10 is_stmt 0 view .LVU318
 991 0072 EAE7     		b	.L35
 992              	.LVL68:
 993              	.L36:
 236:Middlewares/ST/BlueNRG-2/hci/controller/bluenrg1_hal_aci.c ****   if (resp.Status) {
 994              		.loc 1 236 12 view .LVU319
 995 0074 FF20     		movs	r0, #255
 996 0076 E8E7     		b	.L35
 997              		.cfi_endproc
 998              	.LFE138:
 1000              		.section	.text.aci_hal_set_radio_activity_mask,"ax",%progbits
 1001              		.align	1
 1002              		.global	aci_hal_set_radio_activity_mask
 1003              		.syntax unified
 1004              		.thumb
 1005              		.thumb_func
 1007              	aci_hal_set_radio_activity_mask:
 1008              	.LVL69:
 1009              	.LFB139:
 244:Middlewares/ST/BlueNRG-2/hci/controller/bluenrg1_hal_aci.c **** tBleStatus aci_hal_set_radio_activity_mask(uint16_t Radio_Activity_Mask)
ARM GAS  C:\Users\zafee\AppData\Local\Temp\cc9GNLBQ.s 			page 23


 245:Middlewares/ST/BlueNRG-2/hci/controller/bluenrg1_hal_aci.c **** {
 1010              		.loc 1 245 1 is_stmt 1 view -0
 1011              		.cfi_startproc
 1012              		@ args = 0, pretend = 0, frame = 288
 1013              		@ frame_needed = 0, uses_anonymous_args = 0
 1014              		.loc 1 245 1 is_stmt 0 view .LVU321
 1015 0000 00B5     		push	{lr}
 1016              		.cfi_def_cfa_offset 4
 1017              		.cfi_offset 14, -4
 1018 0002 C9B0     		sub	sp, sp, #292
 1019              		.cfi_def_cfa_offset 296
 246:Middlewares/ST/BlueNRG-2/hci/controller/bluenrg1_hal_aci.c ****   struct hci_request rq;
 1020              		.loc 1 246 3 is_stmt 1 view .LVU322
 247:Middlewares/ST/BlueNRG-2/hci/controller/bluenrg1_hal_aci.c ****   uint8_t cmd_buffer[258];
 1021              		.loc 1 247 3 view .LVU323
 248:Middlewares/ST/BlueNRG-2/hci/controller/bluenrg1_hal_aci.c ****   aci_hal_set_radio_activity_mask_cp0 *cp0 = (aci_hal_set_radio_activity_mask_cp0*)(cmd_buffer);
 1022              		.loc 1 248 3 view .LVU324
 1023              	.LVL70:
 249:Middlewares/ST/BlueNRG-2/hci/controller/bluenrg1_hal_aci.c ****   tBleStatus status = 0;
 1024              		.loc 1 249 3 view .LVU325
 1025              		.loc 1 249 14 is_stmt 0 view .LVU326
 1026 0004 0DF10303 		add	r3, sp, #3
 1027 0008 0021     		movs	r1, #0
 1028 000a 8DF80310 		strb	r1, [sp, #3]
 250:Middlewares/ST/BlueNRG-2/hci/controller/bluenrg1_hal_aci.c ****   uint8_t index_input = 0;
 1029              		.loc 1 250 3 is_stmt 1 view .LVU327
 1030              	.LVL71:
 251:Middlewares/ST/BlueNRG-2/hci/controller/bluenrg1_hal_aci.c ****   cp0->Radio_Activity_Mask = htob(Radio_Activity_Mask, 2);
 1031              		.loc 1 251 3 view .LVU328
 1032              		.loc 1 251 28 is_stmt 0 view .LVU329
 1033 000e 01AA     		add	r2, sp, #4
 1034              	.LVL72:
 1035              		.loc 1 251 28 view .LVU330
 1036 0010 ADF80400 		strh	r0, [sp, #4]	@ movhi
 252:Middlewares/ST/BlueNRG-2/hci/controller/bluenrg1_hal_aci.c ****   index_input += 2;
 1037              		.loc 1 252 3 is_stmt 1 view .LVU331
 1038              	.LVL73:
 253:Middlewares/ST/BlueNRG-2/hci/controller/bluenrg1_hal_aci.c ****   BLUENRG_memset(&rq, 0, sizeof(rq));
 1039              		.loc 1 253 3 view .LVU332
 1040 0014 4291     		str	r1, [sp, #264]
 1041 0016 4391     		str	r1, [sp, #268]
 1042 0018 4491     		str	r1, [sp, #272]
 1043 001a 4591     		str	r1, [sp, #276]
 1044 001c 4691     		str	r1, [sp, #280]
 1045 001e 4791     		str	r1, [sp, #284]
 254:Middlewares/ST/BlueNRG-2/hci/controller/bluenrg1_hal_aci.c ****   rq.ogf = 0x3f;
 1046              		.loc 1 254 3 view .LVU333
 1047              		.loc 1 254 10 is_stmt 0 view .LVU334
 1048 0020 3F20     		movs	r0, #63
 1049              	.LVL74:
 1050              		.loc 1 254 10 view .LVU335
 1051 0022 ADF80801 		strh	r0, [sp, #264]	@ movhi
 255:Middlewares/ST/BlueNRG-2/hci/controller/bluenrg1_hal_aci.c ****   rq.ocf = 0x018;
 1052              		.loc 1 255 3 is_stmt 1 view .LVU336
 1053              		.loc 1 255 10 is_stmt 0 view .LVU337
 1054 0026 1820     		movs	r0, #24
 1055 0028 ADF80A01 		strh	r0, [sp, #266]	@ movhi
ARM GAS  C:\Users\zafee\AppData\Local\Temp\cc9GNLBQ.s 			page 24


 256:Middlewares/ST/BlueNRG-2/hci/controller/bluenrg1_hal_aci.c ****   rq.cparam = cmd_buffer;
 1056              		.loc 1 256 3 is_stmt 1 view .LVU338
 1057              		.loc 1 256 13 is_stmt 0 view .LVU339
 1058 002c 4492     		str	r2, [sp, #272]
 257:Middlewares/ST/BlueNRG-2/hci/controller/bluenrg1_hal_aci.c ****   rq.clen = index_input;
 1059              		.loc 1 257 3 is_stmt 1 view .LVU340
 1060              		.loc 1 257 11 is_stmt 0 view .LVU341
 1061 002e 0222     		movs	r2, #2
 1062              	.LVL75:
 1063              		.loc 1 257 11 view .LVU342
 1064 0030 4592     		str	r2, [sp, #276]
 258:Middlewares/ST/BlueNRG-2/hci/controller/bluenrg1_hal_aci.c ****   rq.rparam = &status;
 1065              		.loc 1 258 3 is_stmt 1 view .LVU343
 1066              		.loc 1 258 13 is_stmt 0 view .LVU344
 1067 0032 4693     		str	r3, [sp, #280]
 259:Middlewares/ST/BlueNRG-2/hci/controller/bluenrg1_hal_aci.c ****   rq.rlen = 1;
 1068              		.loc 1 259 3 is_stmt 1 view .LVU345
 1069              		.loc 1 259 11 is_stmt 0 view .LVU346
 1070 0034 0123     		movs	r3, #1
 1071 0036 4793     		str	r3, [sp, #284]
 260:Middlewares/ST/BlueNRG-2/hci/controller/bluenrg1_hal_aci.c ****   if (hci_send_req(&rq, FALSE) < 0)
 1072              		.loc 1 260 3 is_stmt 1 view .LVU347
 1073              		.loc 1 260 7 is_stmt 0 view .LVU348
 1074 0038 42A8     		add	r0, sp, #264
 1075 003a FFF7FEFF 		bl	hci_send_req
 1076              	.LVL76:
 1077              		.loc 1 260 6 view .LVU349
 1078 003e 0028     		cmp	r0, #0
 1079 0040 04DB     		blt	.L41
 261:Middlewares/ST/BlueNRG-2/hci/controller/bluenrg1_hal_aci.c ****     return BLE_STATUS_TIMEOUT;
 262:Middlewares/ST/BlueNRG-2/hci/controller/bluenrg1_hal_aci.c ****   if (status) {
 1080              		.loc 1 262 3 is_stmt 1 view .LVU350
 1081              		.loc 1 262 7 is_stmt 0 view .LVU351
 1082 0042 9DF80300 		ldrb	r0, [sp, #3]	@ zero_extendqisi2
 1083              	.L40:
 263:Middlewares/ST/BlueNRG-2/hci/controller/bluenrg1_hal_aci.c ****     return status;
 264:Middlewares/ST/BlueNRG-2/hci/controller/bluenrg1_hal_aci.c ****   }
 265:Middlewares/ST/BlueNRG-2/hci/controller/bluenrg1_hal_aci.c ****   return BLE_STATUS_SUCCESS;
 266:Middlewares/ST/BlueNRG-2/hci/controller/bluenrg1_hal_aci.c **** }
 1084              		.loc 1 266 1 view .LVU352
 1085 0046 49B0     		add	sp, sp, #292
 1086              		.cfi_remember_state
 1087              		.cfi_def_cfa_offset 4
 1088              		@ sp needed
 1089 0048 5DF804FB 		ldr	pc, [sp], #4
 1090              	.LVL77:
 1091              	.L41:
 1092              		.cfi_restore_state
 261:Middlewares/ST/BlueNRG-2/hci/controller/bluenrg1_hal_aci.c ****     return BLE_STATUS_TIMEOUT;
 1093              		.loc 1 261 12 view .LVU353
 1094 004c FF20     		movs	r0, #255
 1095 004e FAE7     		b	.L40
 1096              		.cfi_endproc
 1097              	.LFE139:
 1099              		.section	.text.aci_hal_get_anchor_period,"ax",%progbits
 1100              		.align	1
 1101              		.global	aci_hal_get_anchor_period
ARM GAS  C:\Users\zafee\AppData\Local\Temp\cc9GNLBQ.s 			page 25


 1102              		.syntax unified
 1103              		.thumb
 1104              		.thumb_func
 1106              	aci_hal_get_anchor_period:
 1107              	.LVL78:
 1108              	.LFB140:
 267:Middlewares/ST/BlueNRG-2/hci/controller/bluenrg1_hal_aci.c **** tBleStatus aci_hal_get_anchor_period(uint32_t *Anchor_Period,
 268:Middlewares/ST/BlueNRG-2/hci/controller/bluenrg1_hal_aci.c ****                                      uint32_t *Max_Free_Slot)
 269:Middlewares/ST/BlueNRG-2/hci/controller/bluenrg1_hal_aci.c **** {
 1109              		.loc 1 269 1 is_stmt 1 view -0
 1110              		.cfi_startproc
 1111              		@ args = 0, pretend = 0, frame = 40
 1112              		@ frame_needed = 0, uses_anonymous_args = 0
 1113              		.loc 1 269 1 is_stmt 0 view .LVU355
 1114 0000 30B5     		push	{r4, r5, lr}
 1115              		.cfi_def_cfa_offset 12
 1116              		.cfi_offset 4, -12
 1117              		.cfi_offset 5, -8
 1118              		.cfi_offset 14, -4
 1119 0002 8BB0     		sub	sp, sp, #44
 1120              		.cfi_def_cfa_offset 56
 1121 0004 0546     		mov	r5, r0
 1122 0006 0C46     		mov	r4, r1
 270:Middlewares/ST/BlueNRG-2/hci/controller/bluenrg1_hal_aci.c ****   struct hci_request rq;
 1123              		.loc 1 270 3 is_stmt 1 view .LVU356
 271:Middlewares/ST/BlueNRG-2/hci/controller/bluenrg1_hal_aci.c ****   aci_hal_get_anchor_period_rp0 resp;
 1124              		.loc 1 271 3 view .LVU357
 272:Middlewares/ST/BlueNRG-2/hci/controller/bluenrg1_hal_aci.c ****   BLUENRG_memset(&resp, 0, sizeof(resp));
 1125              		.loc 1 272 3 view .LVU358
 1126 0008 01AB     		add	r3, sp, #4
 1127 000a 0021     		movs	r1, #0
 1128              	.LVL79:
 1129              		.loc 1 272 3 is_stmt 0 view .LVU359
 1130 000c 0191     		str	r1, [sp, #4]
 1131 000e 0291     		str	r1, [sp, #8]
 1132 0010 8DF80C10 		strb	r1, [sp, #12]
 273:Middlewares/ST/BlueNRG-2/hci/controller/bluenrg1_hal_aci.c ****   BLUENRG_memset(&rq, 0, sizeof(rq));
 1133              		.loc 1 273 3 is_stmt 1 view .LVU360
 1134 0014 0491     		str	r1, [sp, #16]
 1135 0016 0591     		str	r1, [sp, #20]
 1136 0018 0691     		str	r1, [sp, #24]
 1137 001a 0791     		str	r1, [sp, #28]
 1138 001c 0891     		str	r1, [sp, #32]
 1139 001e 0991     		str	r1, [sp, #36]
 274:Middlewares/ST/BlueNRG-2/hci/controller/bluenrg1_hal_aci.c ****   rq.ogf = 0x3f;
 1140              		.loc 1 274 3 view .LVU361
 1141              		.loc 1 274 10 is_stmt 0 view .LVU362
 1142 0020 3F22     		movs	r2, #63
 1143 0022 ADF81020 		strh	r2, [sp, #16]	@ movhi
 275:Middlewares/ST/BlueNRG-2/hci/controller/bluenrg1_hal_aci.c ****   rq.ocf = 0x019;
 1144              		.loc 1 275 3 is_stmt 1 view .LVU363
 1145              		.loc 1 275 10 is_stmt 0 view .LVU364
 1146 0026 1922     		movs	r2, #25
 1147 0028 ADF81220 		strh	r2, [sp, #18]	@ movhi
 276:Middlewares/ST/BlueNRG-2/hci/controller/bluenrg1_hal_aci.c ****   rq.rparam = &resp;
 1148              		.loc 1 276 3 is_stmt 1 view .LVU365
 1149              		.loc 1 276 13 is_stmt 0 view .LVU366
ARM GAS  C:\Users\zafee\AppData\Local\Temp\cc9GNLBQ.s 			page 26


 1150 002c 0893     		str	r3, [sp, #32]
 277:Middlewares/ST/BlueNRG-2/hci/controller/bluenrg1_hal_aci.c ****   rq.rlen = sizeof(resp);
 1151              		.loc 1 277 3 is_stmt 1 view .LVU367
 1152              		.loc 1 277 11 is_stmt 0 view .LVU368
 1153 002e 0923     		movs	r3, #9
 1154 0030 0993     		str	r3, [sp, #36]
 278:Middlewares/ST/BlueNRG-2/hci/controller/bluenrg1_hal_aci.c ****   if (hci_send_req(&rq, FALSE) < 0)
 1155              		.loc 1 278 3 is_stmt 1 view .LVU369
 1156              		.loc 1 278 7 is_stmt 0 view .LVU370
 1157 0032 04A8     		add	r0, sp, #16
 1158              	.LVL80:
 1159              		.loc 1 278 7 view .LVU371
 1160 0034 FFF7FEFF 		bl	hci_send_req
 1161              	.LVL81:
 1162              		.loc 1 278 6 view .LVU372
 1163 0038 0028     		cmp	r0, #0
 1164 003a 0ADB     		blt	.L45
 279:Middlewares/ST/BlueNRG-2/hci/controller/bluenrg1_hal_aci.c ****     return BLE_STATUS_TIMEOUT;
 280:Middlewares/ST/BlueNRG-2/hci/controller/bluenrg1_hal_aci.c ****   if (resp.Status) {
 1165              		.loc 1 280 3 is_stmt 1 view .LVU373
 1166              		.loc 1 280 11 is_stmt 0 view .LVU374
 1167 003c 9DF80400 		ldrb	r0, [sp, #4]	@ zero_extendqisi2
 1168              		.loc 1 280 6 view .LVU375
 1169 0040 28B9     		cbnz	r0, .L44
 281:Middlewares/ST/BlueNRG-2/hci/controller/bluenrg1_hal_aci.c ****     return resp.Status;
 282:Middlewares/ST/BlueNRG-2/hci/controller/bluenrg1_hal_aci.c ****   }
 283:Middlewares/ST/BlueNRG-2/hci/controller/bluenrg1_hal_aci.c ****   *Anchor_Period = btoh(resp.Anchor_Period, 4);
 1170              		.loc 1 283 3 is_stmt 1 view .LVU376
 1171              		.loc 1 283 20 is_stmt 0 view .LVU377
 1172 0042 DDF80530 		ldr	r3, [sp, #5]	@ unaligned
 1173              		.loc 1 283 18 view .LVU378
 1174 0046 2B60     		str	r3, [r5]
 284:Middlewares/ST/BlueNRG-2/hci/controller/bluenrg1_hal_aci.c ****   *Max_Free_Slot = btoh(resp.Max_Free_Slot, 4);
 1175              		.loc 1 284 3 is_stmt 1 view .LVU379
 1176              		.loc 1 284 20 is_stmt 0 view .LVU380
 1177 0048 DDF80930 		ldr	r3, [sp, #9]	@ unaligned
 1178              		.loc 1 284 18 view .LVU381
 1179 004c 2360     		str	r3, [r4]
 285:Middlewares/ST/BlueNRG-2/hci/controller/bluenrg1_hal_aci.c ****   return BLE_STATUS_SUCCESS;
 1180              		.loc 1 285 3 is_stmt 1 view .LVU382
 1181              	.L44:
 286:Middlewares/ST/BlueNRG-2/hci/controller/bluenrg1_hal_aci.c **** }
 1182              		.loc 1 286 1 is_stmt 0 view .LVU383
 1183 004e 0BB0     		add	sp, sp, #44
 1184              		.cfi_remember_state
 1185              		.cfi_def_cfa_offset 12
 1186              		@ sp needed
 1187 0050 30BD     		pop	{r4, r5, pc}
 1188              	.LVL82:
 1189              	.L45:
 1190              		.cfi_restore_state
 279:Middlewares/ST/BlueNRG-2/hci/controller/bluenrg1_hal_aci.c ****   if (resp.Status) {
 1191              		.loc 1 279 12 view .LVU384
 1192 0052 FF20     		movs	r0, #255
 1193 0054 FBE7     		b	.L44
 1194              		.cfi_endproc
 1195              	.LFE140:
ARM GAS  C:\Users\zafee\AppData\Local\Temp\cc9GNLBQ.s 			page 27


 1197              		.section	.text.aci_hal_set_event_mask,"ax",%progbits
 1198              		.align	1
 1199              		.global	aci_hal_set_event_mask
 1200              		.syntax unified
 1201              		.thumb
 1202              		.thumb_func
 1204              	aci_hal_set_event_mask:
 1205              	.LVL83:
 1206              	.LFB141:
 287:Middlewares/ST/BlueNRG-2/hci/controller/bluenrg1_hal_aci.c **** tBleStatus aci_hal_set_event_mask(uint32_t Event_Mask)
 288:Middlewares/ST/BlueNRG-2/hci/controller/bluenrg1_hal_aci.c **** {
 1207              		.loc 1 288 1 is_stmt 1 view -0
 1208              		.cfi_startproc
 1209              		@ args = 0, pretend = 0, frame = 288
 1210              		@ frame_needed = 0, uses_anonymous_args = 0
 1211              		.loc 1 288 1 is_stmt 0 view .LVU386
 1212 0000 00B5     		push	{lr}
 1213              		.cfi_def_cfa_offset 4
 1214              		.cfi_offset 14, -4
 1215 0002 C9B0     		sub	sp, sp, #292
 1216              		.cfi_def_cfa_offset 296
 289:Middlewares/ST/BlueNRG-2/hci/controller/bluenrg1_hal_aci.c ****   struct hci_request rq;
 1217              		.loc 1 289 3 is_stmt 1 view .LVU387
 290:Middlewares/ST/BlueNRG-2/hci/controller/bluenrg1_hal_aci.c ****   uint8_t cmd_buffer[258];
 1218              		.loc 1 290 3 view .LVU388
 291:Middlewares/ST/BlueNRG-2/hci/controller/bluenrg1_hal_aci.c ****   aci_hal_set_event_mask_cp0 *cp0 = (aci_hal_set_event_mask_cp0*)(cmd_buffer);
 1219              		.loc 1 291 3 view .LVU389
 1220              	.LVL84:
 292:Middlewares/ST/BlueNRG-2/hci/controller/bluenrg1_hal_aci.c ****   tBleStatus status = 0;
 1221              		.loc 1 292 3 view .LVU390
 1222              		.loc 1 292 14 is_stmt 0 view .LVU391
 1223 0004 0DF10303 		add	r3, sp, #3
 1224 0008 0021     		movs	r1, #0
 1225 000a 8DF80310 		strb	r1, [sp, #3]
 293:Middlewares/ST/BlueNRG-2/hci/controller/bluenrg1_hal_aci.c ****   uint8_t index_input = 0;
 1226              		.loc 1 293 3 is_stmt 1 view .LVU392
 1227              	.LVL85:
 294:Middlewares/ST/BlueNRG-2/hci/controller/bluenrg1_hal_aci.c ****   cp0->Event_Mask = htob(Event_Mask, 4);
 1228              		.loc 1 294 3 view .LVU393
 1229              		.loc 1 294 19 is_stmt 0 view .LVU394
 1230 000e 01AA     		add	r2, sp, #4
 1231              	.LVL86:
 1232              		.loc 1 294 19 view .LVU395
 1233 0010 0190     		str	r0, [sp, #4]
 295:Middlewares/ST/BlueNRG-2/hci/controller/bluenrg1_hal_aci.c ****   index_input += 4;
 1234              		.loc 1 295 3 is_stmt 1 view .LVU396
 1235              	.LVL87:
 296:Middlewares/ST/BlueNRG-2/hci/controller/bluenrg1_hal_aci.c ****   BLUENRG_memset(&rq, 0, sizeof(rq));
 1236              		.loc 1 296 3 view .LVU397
 1237 0012 4291     		str	r1, [sp, #264]
 1238 0014 4391     		str	r1, [sp, #268]
 1239 0016 4491     		str	r1, [sp, #272]
 1240 0018 4591     		str	r1, [sp, #276]
 1241 001a 4691     		str	r1, [sp, #280]
 1242 001c 4791     		str	r1, [sp, #284]
 297:Middlewares/ST/BlueNRG-2/hci/controller/bluenrg1_hal_aci.c ****   rq.ogf = 0x3f;
 1243              		.loc 1 297 3 view .LVU398
ARM GAS  C:\Users\zafee\AppData\Local\Temp\cc9GNLBQ.s 			page 28


 1244              		.loc 1 297 10 is_stmt 0 view .LVU399
 1245 001e 3F20     		movs	r0, #63
 1246              	.LVL88:
 1247              		.loc 1 297 10 view .LVU400
 1248 0020 ADF80801 		strh	r0, [sp, #264]	@ movhi
 298:Middlewares/ST/BlueNRG-2/hci/controller/bluenrg1_hal_aci.c ****   rq.ocf = 0x01a;
 1249              		.loc 1 298 3 is_stmt 1 view .LVU401
 1250              		.loc 1 298 10 is_stmt 0 view .LVU402
 1251 0024 1A20     		movs	r0, #26
 1252 0026 ADF80A01 		strh	r0, [sp, #266]	@ movhi
 299:Middlewares/ST/BlueNRG-2/hci/controller/bluenrg1_hal_aci.c ****   rq.cparam = cmd_buffer;
 1253              		.loc 1 299 3 is_stmt 1 view .LVU403
 1254              		.loc 1 299 13 is_stmt 0 view .LVU404
 1255 002a 4492     		str	r2, [sp, #272]
 300:Middlewares/ST/BlueNRG-2/hci/controller/bluenrg1_hal_aci.c ****   rq.clen = index_input;
 1256              		.loc 1 300 3 is_stmt 1 view .LVU405
 1257              		.loc 1 300 11 is_stmt 0 view .LVU406
 1258 002c 0422     		movs	r2, #4
 1259              	.LVL89:
 1260              		.loc 1 300 11 view .LVU407
 1261 002e 4592     		str	r2, [sp, #276]
 301:Middlewares/ST/BlueNRG-2/hci/controller/bluenrg1_hal_aci.c ****   rq.rparam = &status;
 1262              		.loc 1 301 3 is_stmt 1 view .LVU408
 1263              		.loc 1 301 13 is_stmt 0 view .LVU409
 1264 0030 4693     		str	r3, [sp, #280]
 302:Middlewares/ST/BlueNRG-2/hci/controller/bluenrg1_hal_aci.c ****   rq.rlen = 1;
 1265              		.loc 1 302 3 is_stmt 1 view .LVU410
 1266              		.loc 1 302 11 is_stmt 0 view .LVU411
 1267 0032 0123     		movs	r3, #1
 1268 0034 4793     		str	r3, [sp, #284]
 303:Middlewares/ST/BlueNRG-2/hci/controller/bluenrg1_hal_aci.c ****   if (hci_send_req(&rq, FALSE) < 0)
 1269              		.loc 1 303 3 is_stmt 1 view .LVU412
 1270              		.loc 1 303 7 is_stmt 0 view .LVU413
 1271 0036 42A8     		add	r0, sp, #264
 1272 0038 FFF7FEFF 		bl	hci_send_req
 1273              	.LVL90:
 1274              		.loc 1 303 6 view .LVU414
 1275 003c 0028     		cmp	r0, #0
 1276 003e 04DB     		blt	.L49
 304:Middlewares/ST/BlueNRG-2/hci/controller/bluenrg1_hal_aci.c ****     return BLE_STATUS_TIMEOUT;
 305:Middlewares/ST/BlueNRG-2/hci/controller/bluenrg1_hal_aci.c ****   if (status) {
 1277              		.loc 1 305 3 is_stmt 1 view .LVU415
 1278              		.loc 1 305 7 is_stmt 0 view .LVU416
 1279 0040 9DF80300 		ldrb	r0, [sp, #3]	@ zero_extendqisi2
 1280              	.L48:
 306:Middlewares/ST/BlueNRG-2/hci/controller/bluenrg1_hal_aci.c ****     return status;
 307:Middlewares/ST/BlueNRG-2/hci/controller/bluenrg1_hal_aci.c ****   }
 308:Middlewares/ST/BlueNRG-2/hci/controller/bluenrg1_hal_aci.c ****   return BLE_STATUS_SUCCESS;
 309:Middlewares/ST/BlueNRG-2/hci/controller/bluenrg1_hal_aci.c **** }
 1281              		.loc 1 309 1 view .LVU417
 1282 0044 49B0     		add	sp, sp, #292
 1283              		.cfi_remember_state
 1284              		.cfi_def_cfa_offset 4
 1285              		@ sp needed
 1286 0046 5DF804FB 		ldr	pc, [sp], #4
 1287              	.LVL91:
 1288              	.L49:
ARM GAS  C:\Users\zafee\AppData\Local\Temp\cc9GNLBQ.s 			page 29


 1289              		.cfi_restore_state
 304:Middlewares/ST/BlueNRG-2/hci/controller/bluenrg1_hal_aci.c ****     return BLE_STATUS_TIMEOUT;
 1290              		.loc 1 304 12 view .LVU418
 1291 004a FF20     		movs	r0, #255
 1292 004c FAE7     		b	.L48
 1293              		.cfi_endproc
 1294              	.LFE141:
 1296              		.section	.text.aci_hal_updater_start,"ax",%progbits
 1297              		.align	1
 1298              		.global	aci_hal_updater_start
 1299              		.syntax unified
 1300              		.thumb
 1301              		.thumb_func
 1303              	aci_hal_updater_start:
 1304              	.LFB142:
 310:Middlewares/ST/BlueNRG-2/hci/controller/bluenrg1_hal_aci.c **** tBleStatus aci_hal_updater_start(void)
 311:Middlewares/ST/BlueNRG-2/hci/controller/bluenrg1_hal_aci.c **** {
 1305              		.loc 1 311 1 is_stmt 1 view -0
 1306              		.cfi_startproc
 1307              		@ args = 0, pretend = 0, frame = 32
 1308              		@ frame_needed = 0, uses_anonymous_args = 0
 1309 0000 00B5     		push	{lr}
 1310              		.cfi_def_cfa_offset 4
 1311              		.cfi_offset 14, -4
 1312 0002 89B0     		sub	sp, sp, #36
 1313              		.cfi_def_cfa_offset 40
 312:Middlewares/ST/BlueNRG-2/hci/controller/bluenrg1_hal_aci.c ****   struct hci_request rq;
 1314              		.loc 1 312 3 view .LVU420
 313:Middlewares/ST/BlueNRG-2/hci/controller/bluenrg1_hal_aci.c ****   tBleStatus status = 0;
 1315              		.loc 1 313 3 view .LVU421
 1316              		.loc 1 313 14 is_stmt 0 view .LVU422
 1317 0004 0021     		movs	r1, #0
 1318 0006 8DF80710 		strb	r1, [sp, #7]
 314:Middlewares/ST/BlueNRG-2/hci/controller/bluenrg1_hal_aci.c ****   BLUENRG_memset(&rq, 0, sizeof(rq));
 1319              		.loc 1 314 3 is_stmt 1 view .LVU423
 1320 000a 0291     		str	r1, [sp, #8]
 1321 000c 0391     		str	r1, [sp, #12]
 1322 000e 0491     		str	r1, [sp, #16]
 1323 0010 0591     		str	r1, [sp, #20]
 1324 0012 0691     		str	r1, [sp, #24]
 1325 0014 0791     		str	r1, [sp, #28]
 315:Middlewares/ST/BlueNRG-2/hci/controller/bluenrg1_hal_aci.c ****   rq.ogf = 0x3f;
 1326              		.loc 1 315 3 view .LVU424
 1327              		.loc 1 315 10 is_stmt 0 view .LVU425
 1328 0016 3F23     		movs	r3, #63
 1329 0018 ADF80830 		strh	r3, [sp, #8]	@ movhi
 316:Middlewares/ST/BlueNRG-2/hci/controller/bluenrg1_hal_aci.c ****   rq.ocf = 0x020;
 1330              		.loc 1 316 3 is_stmt 1 view .LVU426
 1331              		.loc 1 316 10 is_stmt 0 view .LVU427
 1332 001c 2023     		movs	r3, #32
 1333 001e ADF80A30 		strh	r3, [sp, #10]	@ movhi
 317:Middlewares/ST/BlueNRG-2/hci/controller/bluenrg1_hal_aci.c ****   rq.rparam = &status;
 1334              		.loc 1 317 3 is_stmt 1 view .LVU428
 1335              		.loc 1 317 13 is_stmt 0 view .LVU429
 1336 0022 0DF10703 		add	r3, sp, #7
 1337 0026 0693     		str	r3, [sp, #24]
 318:Middlewares/ST/BlueNRG-2/hci/controller/bluenrg1_hal_aci.c ****   rq.rlen = 1;
ARM GAS  C:\Users\zafee\AppData\Local\Temp\cc9GNLBQ.s 			page 30


 1338              		.loc 1 318 3 is_stmt 1 view .LVU430
 1339              		.loc 1 318 11 is_stmt 0 view .LVU431
 1340 0028 0123     		movs	r3, #1
 1341 002a 0793     		str	r3, [sp, #28]
 319:Middlewares/ST/BlueNRG-2/hci/controller/bluenrg1_hal_aci.c ****   if (hci_send_req(&rq, FALSE) < 0)
 1342              		.loc 1 319 3 is_stmt 1 view .LVU432
 1343              		.loc 1 319 7 is_stmt 0 view .LVU433
 1344 002c 02A8     		add	r0, sp, #8
 1345 002e FFF7FEFF 		bl	hci_send_req
 1346              	.LVL92:
 1347              		.loc 1 319 6 view .LVU434
 1348 0032 0028     		cmp	r0, #0
 1349 0034 04DB     		blt	.L53
 320:Middlewares/ST/BlueNRG-2/hci/controller/bluenrg1_hal_aci.c ****     return BLE_STATUS_TIMEOUT;
 321:Middlewares/ST/BlueNRG-2/hci/controller/bluenrg1_hal_aci.c ****   if (status) {
 1350              		.loc 1 321 3 is_stmt 1 view .LVU435
 1351              		.loc 1 321 7 is_stmt 0 view .LVU436
 1352 0036 9DF80700 		ldrb	r0, [sp, #7]	@ zero_extendqisi2
 1353              	.L52:
 322:Middlewares/ST/BlueNRG-2/hci/controller/bluenrg1_hal_aci.c ****     return status;
 323:Middlewares/ST/BlueNRG-2/hci/controller/bluenrg1_hal_aci.c ****   }
 324:Middlewares/ST/BlueNRG-2/hci/controller/bluenrg1_hal_aci.c ****   return BLE_STATUS_SUCCESS;
 325:Middlewares/ST/BlueNRG-2/hci/controller/bluenrg1_hal_aci.c **** }
 1354              		.loc 1 325 1 view .LVU437
 1355 003a 09B0     		add	sp, sp, #36
 1356              		.cfi_remember_state
 1357              		.cfi_def_cfa_offset 4
 1358              		@ sp needed
 1359 003c 5DF804FB 		ldr	pc, [sp], #4
 1360              	.L53:
 1361              		.cfi_restore_state
 320:Middlewares/ST/BlueNRG-2/hci/controller/bluenrg1_hal_aci.c ****     return BLE_STATUS_TIMEOUT;
 1362              		.loc 1 320 12 view .LVU438
 1363 0040 FF20     		movs	r0, #255
 1364 0042 FAE7     		b	.L52
 1365              		.cfi_endproc
 1366              	.LFE142:
 1368              		.section	.text.aci_hal_updater_reboot,"ax",%progbits
 1369              		.align	1
 1370              		.global	aci_hal_updater_reboot
 1371              		.syntax unified
 1372              		.thumb
 1373              		.thumb_func
 1375              	aci_hal_updater_reboot:
 1376              	.LFB143:
 326:Middlewares/ST/BlueNRG-2/hci/controller/bluenrg1_hal_aci.c **** tBleStatus aci_hal_updater_reboot(void)
 327:Middlewares/ST/BlueNRG-2/hci/controller/bluenrg1_hal_aci.c **** {
 1377              		.loc 1 327 1 is_stmt 1 view -0
 1378              		.cfi_startproc
 1379              		@ args = 0, pretend = 0, frame = 32
 1380              		@ frame_needed = 0, uses_anonymous_args = 0
 1381 0000 00B5     		push	{lr}
 1382              		.cfi_def_cfa_offset 4
 1383              		.cfi_offset 14, -4
 1384 0002 89B0     		sub	sp, sp, #36
 1385              		.cfi_def_cfa_offset 40
 328:Middlewares/ST/BlueNRG-2/hci/controller/bluenrg1_hal_aci.c ****   struct hci_request rq;
ARM GAS  C:\Users\zafee\AppData\Local\Temp\cc9GNLBQ.s 			page 31


 1386              		.loc 1 328 3 view .LVU440
 329:Middlewares/ST/BlueNRG-2/hci/controller/bluenrg1_hal_aci.c ****   tBleStatus status = 0;
 1387              		.loc 1 329 3 view .LVU441
 1388              		.loc 1 329 14 is_stmt 0 view .LVU442
 1389 0004 0021     		movs	r1, #0
 1390 0006 8DF80710 		strb	r1, [sp, #7]
 330:Middlewares/ST/BlueNRG-2/hci/controller/bluenrg1_hal_aci.c ****   BLUENRG_memset(&rq, 0, sizeof(rq));
 1391              		.loc 1 330 3 is_stmt 1 view .LVU443
 1392 000a 0291     		str	r1, [sp, #8]
 1393 000c 0391     		str	r1, [sp, #12]
 1394 000e 0491     		str	r1, [sp, #16]
 1395 0010 0591     		str	r1, [sp, #20]
 1396 0012 0691     		str	r1, [sp, #24]
 1397 0014 0791     		str	r1, [sp, #28]
 331:Middlewares/ST/BlueNRG-2/hci/controller/bluenrg1_hal_aci.c ****   rq.ogf = 0x3f;
 1398              		.loc 1 331 3 view .LVU444
 1399              		.loc 1 331 10 is_stmt 0 view .LVU445
 1400 0016 3F23     		movs	r3, #63
 1401 0018 ADF80830 		strh	r3, [sp, #8]	@ movhi
 332:Middlewares/ST/BlueNRG-2/hci/controller/bluenrg1_hal_aci.c ****   rq.ocf = 0x021;
 1402              		.loc 1 332 3 is_stmt 1 view .LVU446
 1403              		.loc 1 332 10 is_stmt 0 view .LVU447
 1404 001c 2123     		movs	r3, #33
 1405 001e ADF80A30 		strh	r3, [sp, #10]	@ movhi
 333:Middlewares/ST/BlueNRG-2/hci/controller/bluenrg1_hal_aci.c ****   rq.rparam = &status;
 1406              		.loc 1 333 3 is_stmt 1 view .LVU448
 1407              		.loc 1 333 13 is_stmt 0 view .LVU449
 1408 0022 0DF10703 		add	r3, sp, #7
 1409 0026 0693     		str	r3, [sp, #24]
 334:Middlewares/ST/BlueNRG-2/hci/controller/bluenrg1_hal_aci.c ****   rq.rlen = 1;
 1410              		.loc 1 334 3 is_stmt 1 view .LVU450
 1411              		.loc 1 334 11 is_stmt 0 view .LVU451
 1412 0028 0123     		movs	r3, #1
 1413 002a 0793     		str	r3, [sp, #28]
 335:Middlewares/ST/BlueNRG-2/hci/controller/bluenrg1_hal_aci.c ****   if (hci_send_req(&rq, FALSE) < 0)
 1414              		.loc 1 335 3 is_stmt 1 view .LVU452
 1415              		.loc 1 335 7 is_stmt 0 view .LVU453
 1416 002c 02A8     		add	r0, sp, #8
 1417 002e FFF7FEFF 		bl	hci_send_req
 1418              	.LVL93:
 1419              		.loc 1 335 6 view .LVU454
 1420 0032 0028     		cmp	r0, #0
 1421 0034 04DB     		blt	.L57
 336:Middlewares/ST/BlueNRG-2/hci/controller/bluenrg1_hal_aci.c ****     return BLE_STATUS_TIMEOUT;
 337:Middlewares/ST/BlueNRG-2/hci/controller/bluenrg1_hal_aci.c ****   if (status) {
 1422              		.loc 1 337 3 is_stmt 1 view .LVU455
 1423              		.loc 1 337 7 is_stmt 0 view .LVU456
 1424 0036 9DF80700 		ldrb	r0, [sp, #7]	@ zero_extendqisi2
 1425              	.L56:
 338:Middlewares/ST/BlueNRG-2/hci/controller/bluenrg1_hal_aci.c ****     return status;
 339:Middlewares/ST/BlueNRG-2/hci/controller/bluenrg1_hal_aci.c ****   }
 340:Middlewares/ST/BlueNRG-2/hci/controller/bluenrg1_hal_aci.c ****   return BLE_STATUS_SUCCESS;
 341:Middlewares/ST/BlueNRG-2/hci/controller/bluenrg1_hal_aci.c **** }
 1426              		.loc 1 341 1 view .LVU457
 1427 003a 09B0     		add	sp, sp, #36
 1428              		.cfi_remember_state
 1429              		.cfi_def_cfa_offset 4
ARM GAS  C:\Users\zafee\AppData\Local\Temp\cc9GNLBQ.s 			page 32


 1430              		@ sp needed
 1431 003c 5DF804FB 		ldr	pc, [sp], #4
 1432              	.L57:
 1433              		.cfi_restore_state
 336:Middlewares/ST/BlueNRG-2/hci/controller/bluenrg1_hal_aci.c ****     return BLE_STATUS_TIMEOUT;
 1434              		.loc 1 336 12 view .LVU458
 1435 0040 FF20     		movs	r0, #255
 1436 0042 FAE7     		b	.L56
 1437              		.cfi_endproc
 1438              	.LFE143:
 1440              		.section	.text.aci_hal_get_updater_version,"ax",%progbits
 1441              		.align	1
 1442              		.global	aci_hal_get_updater_version
 1443              		.syntax unified
 1444              		.thumb
 1445              		.thumb_func
 1447              	aci_hal_get_updater_version:
 1448              	.LVL94:
 1449              	.LFB144:
 342:Middlewares/ST/BlueNRG-2/hci/controller/bluenrg1_hal_aci.c **** tBleStatus aci_hal_get_updater_version(uint8_t *Version)
 343:Middlewares/ST/BlueNRG-2/hci/controller/bluenrg1_hal_aci.c **** {
 1450              		.loc 1 343 1 is_stmt 1 view -0
 1451              		.cfi_startproc
 1452              		@ args = 0, pretend = 0, frame = 32
 1453              		@ frame_needed = 0, uses_anonymous_args = 0
 1454              		.loc 1 343 1 is_stmt 0 view .LVU460
 1455 0000 10B5     		push	{r4, lr}
 1456              		.cfi_def_cfa_offset 8
 1457              		.cfi_offset 4, -8
 1458              		.cfi_offset 14, -4
 1459 0002 88B0     		sub	sp, sp, #32
 1460              		.cfi_def_cfa_offset 40
 1461 0004 0446     		mov	r4, r0
 344:Middlewares/ST/BlueNRG-2/hci/controller/bluenrg1_hal_aci.c ****   struct hci_request rq;
 1462              		.loc 1 344 3 is_stmt 1 view .LVU461
 345:Middlewares/ST/BlueNRG-2/hci/controller/bluenrg1_hal_aci.c ****   aci_hal_get_updater_version_rp0 resp;
 1463              		.loc 1 345 3 view .LVU462
 346:Middlewares/ST/BlueNRG-2/hci/controller/bluenrg1_hal_aci.c ****   BLUENRG_memset(&resp, 0, sizeof(resp));
 1464              		.loc 1 346 3 view .LVU463
 1465 0006 0021     		movs	r1, #0
 1466 0008 ADF80410 		strh	r1, [sp, #4]	@ movhi
 347:Middlewares/ST/BlueNRG-2/hci/controller/bluenrg1_hal_aci.c ****   BLUENRG_memset(&rq, 0, sizeof(rq));
 1467              		.loc 1 347 3 view .LVU464
 1468 000c 0291     		str	r1, [sp, #8]
 1469 000e 0391     		str	r1, [sp, #12]
 1470 0010 0491     		str	r1, [sp, #16]
 1471 0012 0591     		str	r1, [sp, #20]
 1472 0014 0691     		str	r1, [sp, #24]
 1473 0016 0791     		str	r1, [sp, #28]
 348:Middlewares/ST/BlueNRG-2/hci/controller/bluenrg1_hal_aci.c ****   rq.ogf = 0x3f;
 1474              		.loc 1 348 3 view .LVU465
 1475              		.loc 1 348 10 is_stmt 0 view .LVU466
 1476 0018 3F23     		movs	r3, #63
 1477 001a ADF80830 		strh	r3, [sp, #8]	@ movhi
 349:Middlewares/ST/BlueNRG-2/hci/controller/bluenrg1_hal_aci.c ****   rq.ocf = 0x022;
 1478              		.loc 1 349 3 is_stmt 1 view .LVU467
 1479              		.loc 1 349 10 is_stmt 0 view .LVU468
ARM GAS  C:\Users\zafee\AppData\Local\Temp\cc9GNLBQ.s 			page 33


 1480 001e 2223     		movs	r3, #34
 1481 0020 ADF80A30 		strh	r3, [sp, #10]	@ movhi
 350:Middlewares/ST/BlueNRG-2/hci/controller/bluenrg1_hal_aci.c ****   rq.rparam = &resp;
 1482              		.loc 1 350 3 is_stmt 1 view .LVU469
 1483              		.loc 1 350 13 is_stmt 0 view .LVU470
 1484 0024 01AB     		add	r3, sp, #4
 1485 0026 0693     		str	r3, [sp, #24]
 351:Middlewares/ST/BlueNRG-2/hci/controller/bluenrg1_hal_aci.c ****   rq.rlen = sizeof(resp);
 1486              		.loc 1 351 3 is_stmt 1 view .LVU471
 1487              		.loc 1 351 11 is_stmt 0 view .LVU472
 1488 0028 0223     		movs	r3, #2
 1489 002a 0793     		str	r3, [sp, #28]
 352:Middlewares/ST/BlueNRG-2/hci/controller/bluenrg1_hal_aci.c ****   if (hci_send_req(&rq, FALSE) < 0)
 1490              		.loc 1 352 3 is_stmt 1 view .LVU473
 1491              		.loc 1 352 7 is_stmt 0 view .LVU474
 1492 002c 02A8     		add	r0, sp, #8
 1493              	.LVL95:
 1494              		.loc 1 352 7 view .LVU475
 1495 002e FFF7FEFF 		bl	hci_send_req
 1496              	.LVL96:
 1497              		.loc 1 352 6 view .LVU476
 1498 0032 0028     		cmp	r0, #0
 1499 0034 07DB     		blt	.L61
 353:Middlewares/ST/BlueNRG-2/hci/controller/bluenrg1_hal_aci.c ****     return BLE_STATUS_TIMEOUT;
 354:Middlewares/ST/BlueNRG-2/hci/controller/bluenrg1_hal_aci.c ****   if (resp.Status) {
 1500              		.loc 1 354 3 is_stmt 1 view .LVU477
 1501              		.loc 1 354 11 is_stmt 0 view .LVU478
 1502 0036 9DF80400 		ldrb	r0, [sp, #4]	@ zero_extendqisi2
 1503              		.loc 1 354 6 view .LVU479
 1504 003a 10B9     		cbnz	r0, .L60
 355:Middlewares/ST/BlueNRG-2/hci/controller/bluenrg1_hal_aci.c ****     return resp.Status;
 356:Middlewares/ST/BlueNRG-2/hci/controller/bluenrg1_hal_aci.c ****   }
 357:Middlewares/ST/BlueNRG-2/hci/controller/bluenrg1_hal_aci.c ****   *Version = btoh(resp.Version, 1);
 1505              		.loc 1 357 3 is_stmt 1 view .LVU480
 1506              		.loc 1 357 14 is_stmt 0 view .LVU481
 1507 003c 9DF80530 		ldrb	r3, [sp, #5]	@ zero_extendqisi2
 1508              		.loc 1 357 12 view .LVU482
 1509 0040 2370     		strb	r3, [r4]
 358:Middlewares/ST/BlueNRG-2/hci/controller/bluenrg1_hal_aci.c ****   return BLE_STATUS_SUCCESS;
 1510              		.loc 1 358 3 is_stmt 1 view .LVU483
 1511              	.L60:
 359:Middlewares/ST/BlueNRG-2/hci/controller/bluenrg1_hal_aci.c **** }
 1512              		.loc 1 359 1 is_stmt 0 view .LVU484
 1513 0042 08B0     		add	sp, sp, #32
 1514              		.cfi_remember_state
 1515              		.cfi_def_cfa_offset 8
 1516              		@ sp needed
 1517 0044 10BD     		pop	{r4, pc}
 1518              	.LVL97:
 1519              	.L61:
 1520              		.cfi_restore_state
 353:Middlewares/ST/BlueNRG-2/hci/controller/bluenrg1_hal_aci.c ****   if (resp.Status) {
 1521              		.loc 1 353 12 view .LVU485
 1522 0046 FF20     		movs	r0, #255
 1523 0048 FBE7     		b	.L60
 1524              		.cfi_endproc
 1525              	.LFE144:
ARM GAS  C:\Users\zafee\AppData\Local\Temp\cc9GNLBQ.s 			page 34


 1527              		.section	.text.aci_hal_get_updater_bufsize,"ax",%progbits
 1528              		.align	1
 1529              		.global	aci_hal_get_updater_bufsize
 1530              		.syntax unified
 1531              		.thumb
 1532              		.thumb_func
 1534              	aci_hal_get_updater_bufsize:
 1535              	.LVL98:
 1536              	.LFB145:
 360:Middlewares/ST/BlueNRG-2/hci/controller/bluenrg1_hal_aci.c **** tBleStatus aci_hal_get_updater_bufsize(uint8_t *Buffer_Size)
 361:Middlewares/ST/BlueNRG-2/hci/controller/bluenrg1_hal_aci.c **** {
 1537              		.loc 1 361 1 is_stmt 1 view -0
 1538              		.cfi_startproc
 1539              		@ args = 0, pretend = 0, frame = 32
 1540              		@ frame_needed = 0, uses_anonymous_args = 0
 1541              		.loc 1 361 1 is_stmt 0 view .LVU487
 1542 0000 10B5     		push	{r4, lr}
 1543              		.cfi_def_cfa_offset 8
 1544              		.cfi_offset 4, -8
 1545              		.cfi_offset 14, -4
 1546 0002 88B0     		sub	sp, sp, #32
 1547              		.cfi_def_cfa_offset 40
 1548 0004 0446     		mov	r4, r0
 362:Middlewares/ST/BlueNRG-2/hci/controller/bluenrg1_hal_aci.c ****   struct hci_request rq;
 1549              		.loc 1 362 3 is_stmt 1 view .LVU488
 363:Middlewares/ST/BlueNRG-2/hci/controller/bluenrg1_hal_aci.c ****   aci_hal_get_updater_bufsize_rp0 resp;
 1550              		.loc 1 363 3 view .LVU489
 364:Middlewares/ST/BlueNRG-2/hci/controller/bluenrg1_hal_aci.c ****   BLUENRG_memset(&resp, 0, sizeof(resp));
 1551              		.loc 1 364 3 view .LVU490
 1552 0006 0021     		movs	r1, #0
 1553 0008 ADF80410 		strh	r1, [sp, #4]	@ movhi
 365:Middlewares/ST/BlueNRG-2/hci/controller/bluenrg1_hal_aci.c ****   BLUENRG_memset(&rq, 0, sizeof(rq));
 1554              		.loc 1 365 3 view .LVU491
 1555 000c 0291     		str	r1, [sp, #8]
 1556 000e 0391     		str	r1, [sp, #12]
 1557 0010 0491     		str	r1, [sp, #16]
 1558 0012 0591     		str	r1, [sp, #20]
 1559 0014 0691     		str	r1, [sp, #24]
 1560 0016 0791     		str	r1, [sp, #28]
 366:Middlewares/ST/BlueNRG-2/hci/controller/bluenrg1_hal_aci.c ****   rq.ogf = 0x3f;
 1561              		.loc 1 366 3 view .LVU492
 1562              		.loc 1 366 10 is_stmt 0 view .LVU493
 1563 0018 3F23     		movs	r3, #63
 1564 001a ADF80830 		strh	r3, [sp, #8]	@ movhi
 367:Middlewares/ST/BlueNRG-2/hci/controller/bluenrg1_hal_aci.c ****   rq.ocf = 0x023;
 1565              		.loc 1 367 3 is_stmt 1 view .LVU494
 1566              		.loc 1 367 10 is_stmt 0 view .LVU495
 1567 001e 2323     		movs	r3, #35
 1568 0020 ADF80A30 		strh	r3, [sp, #10]	@ movhi
 368:Middlewares/ST/BlueNRG-2/hci/controller/bluenrg1_hal_aci.c ****   rq.rparam = &resp;
 1569              		.loc 1 368 3 is_stmt 1 view .LVU496
 1570              		.loc 1 368 13 is_stmt 0 view .LVU497
 1571 0024 01AB     		add	r3, sp, #4
 1572 0026 0693     		str	r3, [sp, #24]
 369:Middlewares/ST/BlueNRG-2/hci/controller/bluenrg1_hal_aci.c ****   rq.rlen = sizeof(resp);
 1573              		.loc 1 369 3 is_stmt 1 view .LVU498
 1574              		.loc 1 369 11 is_stmt 0 view .LVU499
ARM GAS  C:\Users\zafee\AppData\Local\Temp\cc9GNLBQ.s 			page 35


 1575 0028 0223     		movs	r3, #2
 1576 002a 0793     		str	r3, [sp, #28]
 370:Middlewares/ST/BlueNRG-2/hci/controller/bluenrg1_hal_aci.c ****   if (hci_send_req(&rq, FALSE) < 0)
 1577              		.loc 1 370 3 is_stmt 1 view .LVU500
 1578              		.loc 1 370 7 is_stmt 0 view .LVU501
 1579 002c 02A8     		add	r0, sp, #8
 1580              	.LVL99:
 1581              		.loc 1 370 7 view .LVU502
 1582 002e FFF7FEFF 		bl	hci_send_req
 1583              	.LVL100:
 1584              		.loc 1 370 6 view .LVU503
 1585 0032 0028     		cmp	r0, #0
 1586 0034 07DB     		blt	.L65
 371:Middlewares/ST/BlueNRG-2/hci/controller/bluenrg1_hal_aci.c ****     return BLE_STATUS_TIMEOUT;
 372:Middlewares/ST/BlueNRG-2/hci/controller/bluenrg1_hal_aci.c ****   if (resp.Status) {
 1587              		.loc 1 372 3 is_stmt 1 view .LVU504
 1588              		.loc 1 372 11 is_stmt 0 view .LVU505
 1589 0036 9DF80400 		ldrb	r0, [sp, #4]	@ zero_extendqisi2
 1590              		.loc 1 372 6 view .LVU506
 1591 003a 10B9     		cbnz	r0, .L64
 373:Middlewares/ST/BlueNRG-2/hci/controller/bluenrg1_hal_aci.c ****     return resp.Status;
 374:Middlewares/ST/BlueNRG-2/hci/controller/bluenrg1_hal_aci.c ****   }
 375:Middlewares/ST/BlueNRG-2/hci/controller/bluenrg1_hal_aci.c ****   *Buffer_Size = btoh(resp.Buffer_Size, 1);
 1592              		.loc 1 375 3 is_stmt 1 view .LVU507
 1593              		.loc 1 375 18 is_stmt 0 view .LVU508
 1594 003c 9DF80530 		ldrb	r3, [sp, #5]	@ zero_extendqisi2
 1595              		.loc 1 375 16 view .LVU509
 1596 0040 2370     		strb	r3, [r4]
 376:Middlewares/ST/BlueNRG-2/hci/controller/bluenrg1_hal_aci.c ****   return BLE_STATUS_SUCCESS;
 1597              		.loc 1 376 3 is_stmt 1 view .LVU510
 1598              	.L64:
 377:Middlewares/ST/BlueNRG-2/hci/controller/bluenrg1_hal_aci.c **** }
 1599              		.loc 1 377 1 is_stmt 0 view .LVU511
 1600 0042 08B0     		add	sp, sp, #32
 1601              		.cfi_remember_state
 1602              		.cfi_def_cfa_offset 8
 1603              		@ sp needed
 1604 0044 10BD     		pop	{r4, pc}
 1605              	.LVL101:
 1606              	.L65:
 1607              		.cfi_restore_state
 371:Middlewares/ST/BlueNRG-2/hci/controller/bluenrg1_hal_aci.c ****   if (resp.Status) {
 1608              		.loc 1 371 12 view .LVU512
 1609 0046 FF20     		movs	r0, #255
 1610 0048 FBE7     		b	.L64
 1611              		.cfi_endproc
 1612              	.LFE145:
 1614              		.section	.text.aci_hal_updater_erase_blue_flag,"ax",%progbits
 1615              		.align	1
 1616              		.global	aci_hal_updater_erase_blue_flag
 1617              		.syntax unified
 1618              		.thumb
 1619              		.thumb_func
 1621              	aci_hal_updater_erase_blue_flag:
 1622              	.LFB146:
 378:Middlewares/ST/BlueNRG-2/hci/controller/bluenrg1_hal_aci.c **** tBleStatus aci_hal_updater_erase_blue_flag(void)
 379:Middlewares/ST/BlueNRG-2/hci/controller/bluenrg1_hal_aci.c **** {
ARM GAS  C:\Users\zafee\AppData\Local\Temp\cc9GNLBQ.s 			page 36


 1623              		.loc 1 379 1 is_stmt 1 view -0
 1624              		.cfi_startproc
 1625              		@ args = 0, pretend = 0, frame = 32
 1626              		@ frame_needed = 0, uses_anonymous_args = 0
 1627 0000 00B5     		push	{lr}
 1628              		.cfi_def_cfa_offset 4
 1629              		.cfi_offset 14, -4
 1630 0002 89B0     		sub	sp, sp, #36
 1631              		.cfi_def_cfa_offset 40
 380:Middlewares/ST/BlueNRG-2/hci/controller/bluenrg1_hal_aci.c ****   struct hci_request rq;
 1632              		.loc 1 380 3 view .LVU514
 381:Middlewares/ST/BlueNRG-2/hci/controller/bluenrg1_hal_aci.c ****   tBleStatus status = 0;
 1633              		.loc 1 381 3 view .LVU515
 1634              		.loc 1 381 14 is_stmt 0 view .LVU516
 1635 0004 0021     		movs	r1, #0
 1636 0006 8DF80710 		strb	r1, [sp, #7]
 382:Middlewares/ST/BlueNRG-2/hci/controller/bluenrg1_hal_aci.c ****   BLUENRG_memset(&rq, 0, sizeof(rq));
 1637              		.loc 1 382 3 is_stmt 1 view .LVU517
 1638 000a 0291     		str	r1, [sp, #8]
 1639 000c 0391     		str	r1, [sp, #12]
 1640 000e 0491     		str	r1, [sp, #16]
 1641 0010 0591     		str	r1, [sp, #20]
 1642 0012 0691     		str	r1, [sp, #24]
 1643 0014 0791     		str	r1, [sp, #28]
 383:Middlewares/ST/BlueNRG-2/hci/controller/bluenrg1_hal_aci.c ****   rq.ogf = 0x3f;
 1644              		.loc 1 383 3 view .LVU518
 1645              		.loc 1 383 10 is_stmt 0 view .LVU519
 1646 0016 3F23     		movs	r3, #63
 1647 0018 ADF80830 		strh	r3, [sp, #8]	@ movhi
 384:Middlewares/ST/BlueNRG-2/hci/controller/bluenrg1_hal_aci.c ****   rq.ocf = 0x024;
 1648              		.loc 1 384 3 is_stmt 1 view .LVU520
 1649              		.loc 1 384 10 is_stmt 0 view .LVU521
 1650 001c 2423     		movs	r3, #36
 1651 001e ADF80A30 		strh	r3, [sp, #10]	@ movhi
 385:Middlewares/ST/BlueNRG-2/hci/controller/bluenrg1_hal_aci.c ****   rq.rparam = &status;
 1652              		.loc 1 385 3 is_stmt 1 view .LVU522
 1653              		.loc 1 385 13 is_stmt 0 view .LVU523
 1654 0022 0DF10703 		add	r3, sp, #7
 1655 0026 0693     		str	r3, [sp, #24]
 386:Middlewares/ST/BlueNRG-2/hci/controller/bluenrg1_hal_aci.c ****   rq.rlen = 1;
 1656              		.loc 1 386 3 is_stmt 1 view .LVU524
 1657              		.loc 1 386 11 is_stmt 0 view .LVU525
 1658 0028 0123     		movs	r3, #1
 1659 002a 0793     		str	r3, [sp, #28]
 387:Middlewares/ST/BlueNRG-2/hci/controller/bluenrg1_hal_aci.c ****   if (hci_send_req(&rq, FALSE) < 0)
 1660              		.loc 1 387 3 is_stmt 1 view .LVU526
 1661              		.loc 1 387 7 is_stmt 0 view .LVU527
 1662 002c 02A8     		add	r0, sp, #8
 1663 002e FFF7FEFF 		bl	hci_send_req
 1664              	.LVL102:
 1665              		.loc 1 387 6 view .LVU528
 1666 0032 0028     		cmp	r0, #0
 1667 0034 04DB     		blt	.L69
 388:Middlewares/ST/BlueNRG-2/hci/controller/bluenrg1_hal_aci.c ****     return BLE_STATUS_TIMEOUT;
 389:Middlewares/ST/BlueNRG-2/hci/controller/bluenrg1_hal_aci.c ****   if (status) {
 1668              		.loc 1 389 3 is_stmt 1 view .LVU529
 1669              		.loc 1 389 7 is_stmt 0 view .LVU530
ARM GAS  C:\Users\zafee\AppData\Local\Temp\cc9GNLBQ.s 			page 37


 1670 0036 9DF80700 		ldrb	r0, [sp, #7]	@ zero_extendqisi2
 1671              	.L68:
 390:Middlewares/ST/BlueNRG-2/hci/controller/bluenrg1_hal_aci.c ****     return status;
 391:Middlewares/ST/BlueNRG-2/hci/controller/bluenrg1_hal_aci.c ****   }
 392:Middlewares/ST/BlueNRG-2/hci/controller/bluenrg1_hal_aci.c ****   return BLE_STATUS_SUCCESS;
 393:Middlewares/ST/BlueNRG-2/hci/controller/bluenrg1_hal_aci.c **** }
 1672              		.loc 1 393 1 view .LVU531
 1673 003a 09B0     		add	sp, sp, #36
 1674              		.cfi_remember_state
 1675              		.cfi_def_cfa_offset 4
 1676              		@ sp needed
 1677 003c 5DF804FB 		ldr	pc, [sp], #4
 1678              	.L69:
 1679              		.cfi_restore_state
 388:Middlewares/ST/BlueNRG-2/hci/controller/bluenrg1_hal_aci.c ****     return BLE_STATUS_TIMEOUT;
 1680              		.loc 1 388 12 view .LVU532
 1681 0040 FF20     		movs	r0, #255
 1682 0042 FAE7     		b	.L68
 1683              		.cfi_endproc
 1684              	.LFE146:
 1686              		.section	.text.aci_hal_updater_reset_blue_flag,"ax",%progbits
 1687              		.align	1
 1688              		.global	aci_hal_updater_reset_blue_flag
 1689              		.syntax unified
 1690              		.thumb
 1691              		.thumb_func
 1693              	aci_hal_updater_reset_blue_flag:
 1694              	.LFB147:
 394:Middlewares/ST/BlueNRG-2/hci/controller/bluenrg1_hal_aci.c **** tBleStatus aci_hal_updater_reset_blue_flag(void)
 395:Middlewares/ST/BlueNRG-2/hci/controller/bluenrg1_hal_aci.c **** {
 1695              		.loc 1 395 1 is_stmt 1 view -0
 1696              		.cfi_startproc
 1697              		@ args = 0, pretend = 0, frame = 32
 1698              		@ frame_needed = 0, uses_anonymous_args = 0
 1699 0000 00B5     		push	{lr}
 1700              		.cfi_def_cfa_offset 4
 1701              		.cfi_offset 14, -4
 1702 0002 89B0     		sub	sp, sp, #36
 1703              		.cfi_def_cfa_offset 40
 396:Middlewares/ST/BlueNRG-2/hci/controller/bluenrg1_hal_aci.c ****   struct hci_request rq;
 1704              		.loc 1 396 3 view .LVU534
 397:Middlewares/ST/BlueNRG-2/hci/controller/bluenrg1_hal_aci.c ****   tBleStatus status = 0;
 1705              		.loc 1 397 3 view .LVU535
 1706              		.loc 1 397 14 is_stmt 0 view .LVU536
 1707 0004 0021     		movs	r1, #0
 1708 0006 8DF80710 		strb	r1, [sp, #7]
 398:Middlewares/ST/BlueNRG-2/hci/controller/bluenrg1_hal_aci.c ****   BLUENRG_memset(&rq, 0, sizeof(rq));
 1709              		.loc 1 398 3 is_stmt 1 view .LVU537
 1710 000a 0291     		str	r1, [sp, #8]
 1711 000c 0391     		str	r1, [sp, #12]
 1712 000e 0491     		str	r1, [sp, #16]
 1713 0010 0591     		str	r1, [sp, #20]
 1714 0012 0691     		str	r1, [sp, #24]
 1715 0014 0791     		str	r1, [sp, #28]
 399:Middlewares/ST/BlueNRG-2/hci/controller/bluenrg1_hal_aci.c ****   rq.ogf = 0x3f;
 1716              		.loc 1 399 3 view .LVU538
 1717              		.loc 1 399 10 is_stmt 0 view .LVU539
ARM GAS  C:\Users\zafee\AppData\Local\Temp\cc9GNLBQ.s 			page 38


 1718 0016 3F23     		movs	r3, #63
 1719 0018 ADF80830 		strh	r3, [sp, #8]	@ movhi
 400:Middlewares/ST/BlueNRG-2/hci/controller/bluenrg1_hal_aci.c ****   rq.ocf = 0x025;
 1720              		.loc 1 400 3 is_stmt 1 view .LVU540
 1721              		.loc 1 400 10 is_stmt 0 view .LVU541
 1722 001c 2523     		movs	r3, #37
 1723 001e ADF80A30 		strh	r3, [sp, #10]	@ movhi
 401:Middlewares/ST/BlueNRG-2/hci/controller/bluenrg1_hal_aci.c ****   rq.rparam = &status;
 1724              		.loc 1 401 3 is_stmt 1 view .LVU542
 1725              		.loc 1 401 13 is_stmt 0 view .LVU543
 1726 0022 0DF10703 		add	r3, sp, #7
 1727 0026 0693     		str	r3, [sp, #24]
 402:Middlewares/ST/BlueNRG-2/hci/controller/bluenrg1_hal_aci.c ****   rq.rlen = 1;
 1728              		.loc 1 402 3 is_stmt 1 view .LVU544
 1729              		.loc 1 402 11 is_stmt 0 view .LVU545
 1730 0028 0123     		movs	r3, #1
 1731 002a 0793     		str	r3, [sp, #28]
 403:Middlewares/ST/BlueNRG-2/hci/controller/bluenrg1_hal_aci.c ****   if (hci_send_req(&rq, FALSE) < 0)
 1732              		.loc 1 403 3 is_stmt 1 view .LVU546
 1733              		.loc 1 403 7 is_stmt 0 view .LVU547
 1734 002c 02A8     		add	r0, sp, #8
 1735 002e FFF7FEFF 		bl	hci_send_req
 1736              	.LVL103:
 1737              		.loc 1 403 6 view .LVU548
 1738 0032 0028     		cmp	r0, #0
 1739 0034 04DB     		blt	.L73
 404:Middlewares/ST/BlueNRG-2/hci/controller/bluenrg1_hal_aci.c ****     return BLE_STATUS_TIMEOUT;
 405:Middlewares/ST/BlueNRG-2/hci/controller/bluenrg1_hal_aci.c ****   if (status) {
 1740              		.loc 1 405 3 is_stmt 1 view .LVU549
 1741              		.loc 1 405 7 is_stmt 0 view .LVU550
 1742 0036 9DF80700 		ldrb	r0, [sp, #7]	@ zero_extendqisi2
 1743              	.L72:
 406:Middlewares/ST/BlueNRG-2/hci/controller/bluenrg1_hal_aci.c ****     return status;
 407:Middlewares/ST/BlueNRG-2/hci/controller/bluenrg1_hal_aci.c ****   }
 408:Middlewares/ST/BlueNRG-2/hci/controller/bluenrg1_hal_aci.c ****   return BLE_STATUS_SUCCESS;
 409:Middlewares/ST/BlueNRG-2/hci/controller/bluenrg1_hal_aci.c **** }
 1744              		.loc 1 409 1 view .LVU551
 1745 003a 09B0     		add	sp, sp, #36
 1746              		.cfi_remember_state
 1747              		.cfi_def_cfa_offset 4
 1748              		@ sp needed
 1749 003c 5DF804FB 		ldr	pc, [sp], #4
 1750              	.L73:
 1751              		.cfi_restore_state
 404:Middlewares/ST/BlueNRG-2/hci/controller/bluenrg1_hal_aci.c ****     return BLE_STATUS_TIMEOUT;
 1752              		.loc 1 404 12 view .LVU552
 1753 0040 FF20     		movs	r0, #255
 1754 0042 FAE7     		b	.L72
 1755              		.cfi_endproc
 1756              	.LFE147:
 1758              		.section	.text.aci_hal_updater_erase_sector,"ax",%progbits
 1759              		.align	1
 1760              		.global	aci_hal_updater_erase_sector
 1761              		.syntax unified
 1762              		.thumb
 1763              		.thumb_func
 1765              	aci_hal_updater_erase_sector:
ARM GAS  C:\Users\zafee\AppData\Local\Temp\cc9GNLBQ.s 			page 39


 1766              	.LVL104:
 1767              	.LFB148:
 410:Middlewares/ST/BlueNRG-2/hci/controller/bluenrg1_hal_aci.c **** tBleStatus aci_hal_updater_erase_sector(uint32_t Address)
 411:Middlewares/ST/BlueNRG-2/hci/controller/bluenrg1_hal_aci.c **** {
 1768              		.loc 1 411 1 is_stmt 1 view -0
 1769              		.cfi_startproc
 1770              		@ args = 0, pretend = 0, frame = 288
 1771              		@ frame_needed = 0, uses_anonymous_args = 0
 1772              		.loc 1 411 1 is_stmt 0 view .LVU554
 1773 0000 00B5     		push	{lr}
 1774              		.cfi_def_cfa_offset 4
 1775              		.cfi_offset 14, -4
 1776 0002 C9B0     		sub	sp, sp, #292
 1777              		.cfi_def_cfa_offset 296
 412:Middlewares/ST/BlueNRG-2/hci/controller/bluenrg1_hal_aci.c ****   struct hci_request rq;
 1778              		.loc 1 412 3 is_stmt 1 view .LVU555
 413:Middlewares/ST/BlueNRG-2/hci/controller/bluenrg1_hal_aci.c ****   uint8_t cmd_buffer[258];
 1779              		.loc 1 413 3 view .LVU556
 414:Middlewares/ST/BlueNRG-2/hci/controller/bluenrg1_hal_aci.c ****   aci_hal_updater_erase_sector_cp0 *cp0 = (aci_hal_updater_erase_sector_cp0*)(cmd_buffer);
 1780              		.loc 1 414 3 view .LVU557
 1781              	.LVL105:
 415:Middlewares/ST/BlueNRG-2/hci/controller/bluenrg1_hal_aci.c ****   tBleStatus status = 0;
 1782              		.loc 1 415 3 view .LVU558
 1783              		.loc 1 415 14 is_stmt 0 view .LVU559
 1784 0004 0DF10303 		add	r3, sp, #3
 1785 0008 0021     		movs	r1, #0
 1786 000a 8DF80310 		strb	r1, [sp, #3]
 416:Middlewares/ST/BlueNRG-2/hci/controller/bluenrg1_hal_aci.c ****   uint8_t index_input = 0;
 1787              		.loc 1 416 3 is_stmt 1 view .LVU560
 1788              	.LVL106:
 417:Middlewares/ST/BlueNRG-2/hci/controller/bluenrg1_hal_aci.c ****   cp0->Address = htob(Address, 4);
 1789              		.loc 1 417 3 view .LVU561
 1790              		.loc 1 417 16 is_stmt 0 view .LVU562
 1791 000e 01AA     		add	r2, sp, #4
 1792              	.LVL107:
 1793              		.loc 1 417 16 view .LVU563
 1794 0010 0190     		str	r0, [sp, #4]
 418:Middlewares/ST/BlueNRG-2/hci/controller/bluenrg1_hal_aci.c ****   index_input += 4;
 1795              		.loc 1 418 3 is_stmt 1 view .LVU564
 1796              	.LVL108:
 419:Middlewares/ST/BlueNRG-2/hci/controller/bluenrg1_hal_aci.c ****   BLUENRG_memset(&rq, 0, sizeof(rq));
 1797              		.loc 1 419 3 view .LVU565
 1798 0012 4291     		str	r1, [sp, #264]
 1799 0014 4391     		str	r1, [sp, #268]
 1800 0016 4491     		str	r1, [sp, #272]
 1801 0018 4591     		str	r1, [sp, #276]
 1802 001a 4691     		str	r1, [sp, #280]
 1803 001c 4791     		str	r1, [sp, #284]
 420:Middlewares/ST/BlueNRG-2/hci/controller/bluenrg1_hal_aci.c ****   rq.ogf = 0x3f;
 1804              		.loc 1 420 3 view .LVU566
 1805              		.loc 1 420 10 is_stmt 0 view .LVU567
 1806 001e 3F20     		movs	r0, #63
 1807              	.LVL109:
 1808              		.loc 1 420 10 view .LVU568
 1809 0020 ADF80801 		strh	r0, [sp, #264]	@ movhi
 421:Middlewares/ST/BlueNRG-2/hci/controller/bluenrg1_hal_aci.c ****   rq.ocf = 0x026;
 1810              		.loc 1 421 3 is_stmt 1 view .LVU569
ARM GAS  C:\Users\zafee\AppData\Local\Temp\cc9GNLBQ.s 			page 40


 1811              		.loc 1 421 10 is_stmt 0 view .LVU570
 1812 0024 2620     		movs	r0, #38
 1813 0026 ADF80A01 		strh	r0, [sp, #266]	@ movhi
 422:Middlewares/ST/BlueNRG-2/hci/controller/bluenrg1_hal_aci.c ****   rq.cparam = cmd_buffer;
 1814              		.loc 1 422 3 is_stmt 1 view .LVU571
 1815              		.loc 1 422 13 is_stmt 0 view .LVU572
 1816 002a 4492     		str	r2, [sp, #272]
 423:Middlewares/ST/BlueNRG-2/hci/controller/bluenrg1_hal_aci.c ****   rq.clen = index_input;
 1817              		.loc 1 423 3 is_stmt 1 view .LVU573
 1818              		.loc 1 423 11 is_stmt 0 view .LVU574
 1819 002c 0422     		movs	r2, #4
 1820              	.LVL110:
 1821              		.loc 1 423 11 view .LVU575
 1822 002e 4592     		str	r2, [sp, #276]
 424:Middlewares/ST/BlueNRG-2/hci/controller/bluenrg1_hal_aci.c ****   rq.rparam = &status;
 1823              		.loc 1 424 3 is_stmt 1 view .LVU576
 1824              		.loc 1 424 13 is_stmt 0 view .LVU577
 1825 0030 4693     		str	r3, [sp, #280]
 425:Middlewares/ST/BlueNRG-2/hci/controller/bluenrg1_hal_aci.c ****   rq.rlen = 1;
 1826              		.loc 1 425 3 is_stmt 1 view .LVU578
 1827              		.loc 1 425 11 is_stmt 0 view .LVU579
 1828 0032 0123     		movs	r3, #1
 1829 0034 4793     		str	r3, [sp, #284]
 426:Middlewares/ST/BlueNRG-2/hci/controller/bluenrg1_hal_aci.c ****   if (hci_send_req(&rq, FALSE) < 0)
 1830              		.loc 1 426 3 is_stmt 1 view .LVU580
 1831              		.loc 1 426 7 is_stmt 0 view .LVU581
 1832 0036 42A8     		add	r0, sp, #264
 1833 0038 FFF7FEFF 		bl	hci_send_req
 1834              	.LVL111:
 1835              		.loc 1 426 6 view .LVU582
 1836 003c 0028     		cmp	r0, #0
 1837 003e 04DB     		blt	.L77
 427:Middlewares/ST/BlueNRG-2/hci/controller/bluenrg1_hal_aci.c ****     return BLE_STATUS_TIMEOUT;
 428:Middlewares/ST/BlueNRG-2/hci/controller/bluenrg1_hal_aci.c ****   if (status) {
 1838              		.loc 1 428 3 is_stmt 1 view .LVU583
 1839              		.loc 1 428 7 is_stmt 0 view .LVU584
 1840 0040 9DF80300 		ldrb	r0, [sp, #3]	@ zero_extendqisi2
 1841              	.L76:
 429:Middlewares/ST/BlueNRG-2/hci/controller/bluenrg1_hal_aci.c ****     return status;
 430:Middlewares/ST/BlueNRG-2/hci/controller/bluenrg1_hal_aci.c ****   }
 431:Middlewares/ST/BlueNRG-2/hci/controller/bluenrg1_hal_aci.c ****   return BLE_STATUS_SUCCESS;
 432:Middlewares/ST/BlueNRG-2/hci/controller/bluenrg1_hal_aci.c **** }
 1842              		.loc 1 432 1 view .LVU585
 1843 0044 49B0     		add	sp, sp, #292
 1844              		.cfi_remember_state
 1845              		.cfi_def_cfa_offset 4
 1846              		@ sp needed
 1847 0046 5DF804FB 		ldr	pc, [sp], #4
 1848              	.LVL112:
 1849              	.L77:
 1850              		.cfi_restore_state
 427:Middlewares/ST/BlueNRG-2/hci/controller/bluenrg1_hal_aci.c ****     return BLE_STATUS_TIMEOUT;
 1851              		.loc 1 427 12 view .LVU586
 1852 004a FF20     		movs	r0, #255
 1853 004c FAE7     		b	.L76
 1854              		.cfi_endproc
 1855              	.LFE148:
ARM GAS  C:\Users\zafee\AppData\Local\Temp\cc9GNLBQ.s 			page 41


 1857              		.section	.text.aci_hal_updater_prog_data_blk,"ax",%progbits
 1858              		.align	1
 1859              		.global	aci_hal_updater_prog_data_blk
 1860              		.syntax unified
 1861              		.thumb
 1862              		.thumb_func
 1864              	aci_hal_updater_prog_data_blk:
 1865              	.LVL113:
 1866              	.LFB149:
 433:Middlewares/ST/BlueNRG-2/hci/controller/bluenrg1_hal_aci.c **** tBleStatus aci_hal_updater_prog_data_blk(uint32_t Address,
 434:Middlewares/ST/BlueNRG-2/hci/controller/bluenrg1_hal_aci.c ****                                          uint16_t Data_Length,
 435:Middlewares/ST/BlueNRG-2/hci/controller/bluenrg1_hal_aci.c ****                                          uint8_t Data[])
 436:Middlewares/ST/BlueNRG-2/hci/controller/bluenrg1_hal_aci.c **** {
 1867              		.loc 1 436 1 is_stmt 1 view -0
 1868              		.cfi_startproc
 1869              		@ args = 0, pretend = 0, frame = 288
 1870              		@ frame_needed = 0, uses_anonymous_args = 0
 1871              		.loc 1 436 1 is_stmt 0 view .LVU588
 1872 0000 F0B5     		push	{r4, r5, r6, r7, lr}
 1873              		.cfi_def_cfa_offset 20
 1874              		.cfi_offset 4, -20
 1875              		.cfi_offset 5, -16
 1876              		.cfi_offset 6, -12
 1877              		.cfi_offset 7, -8
 1878              		.cfi_offset 14, -4
 1879 0002 C9B0     		sub	sp, sp, #292
 1880              		.cfi_def_cfa_offset 312
 1881 0004 0C46     		mov	r4, r1
 1882 0006 1146     		mov	r1, r2
 1883              	.LVL114:
 437:Middlewares/ST/BlueNRG-2/hci/controller/bluenrg1_hal_aci.c ****   struct hci_request rq;
 1884              		.loc 1 437 3 is_stmt 1 view .LVU589
 438:Middlewares/ST/BlueNRG-2/hci/controller/bluenrg1_hal_aci.c ****   uint8_t cmd_buffer[258];
 1885              		.loc 1 438 3 view .LVU590
 439:Middlewares/ST/BlueNRG-2/hci/controller/bluenrg1_hal_aci.c ****   aci_hal_updater_prog_data_blk_cp0 *cp0 = (aci_hal_updater_prog_data_blk_cp0*)(cmd_buffer);
 1886              		.loc 1 439 3 view .LVU591
 440:Middlewares/ST/BlueNRG-2/hci/controller/bluenrg1_hal_aci.c ****   tBleStatus status = 0;
 1887              		.loc 1 440 3 view .LVU592
 1888              		.loc 1 440 14 is_stmt 0 view .LVU593
 1889 0008 0DF10307 		add	r7, sp, #3
 1890 000c 0025     		movs	r5, #0
 1891 000e 8DF80350 		strb	r5, [sp, #3]
 441:Middlewares/ST/BlueNRG-2/hci/controller/bluenrg1_hal_aci.c ****   uint8_t index_input = 0;
 1892              		.loc 1 441 3 is_stmt 1 view .LVU594
 1893              	.LVL115:
 442:Middlewares/ST/BlueNRG-2/hci/controller/bluenrg1_hal_aci.c ****   cp0->Address = htob(Address, 4);
 1894              		.loc 1 442 3 view .LVU595
 1895              		.loc 1 442 16 is_stmt 0 view .LVU596
 1896 0012 01AE     		add	r6, sp, #4
 1897              	.LVL116:
 1898              		.loc 1 442 16 view .LVU597
 1899 0014 0190     		str	r0, [sp, #4]
 443:Middlewares/ST/BlueNRG-2/hci/controller/bluenrg1_hal_aci.c ****   index_input += 4;
 1900              		.loc 1 443 3 is_stmt 1 view .LVU598
 1901              	.LVL117:
 444:Middlewares/ST/BlueNRG-2/hci/controller/bluenrg1_hal_aci.c ****   cp0->Data_Length = htob(Data_Length, 2);
 1902              		.loc 1 444 3 view .LVU599
ARM GAS  C:\Users\zafee\AppData\Local\Temp\cc9GNLBQ.s 			page 42


 1903              		.loc 1 444 20 is_stmt 0 view .LVU600
 1904 0016 ADF80840 		strh	r4, [sp, #8]	@ movhi
 445:Middlewares/ST/BlueNRG-2/hci/controller/bluenrg1_hal_aci.c ****   index_input += 2;
 1905              		.loc 1 445 3 is_stmt 1 view .LVU601
 1906              	.LVL118:
 446:Middlewares/ST/BlueNRG-2/hci/controller/bluenrg1_hal_aci.c ****   /* var_len_data input */
 447:Middlewares/ST/BlueNRG-2/hci/controller/bluenrg1_hal_aci.c ****   {
 448:Middlewares/ST/BlueNRG-2/hci/controller/bluenrg1_hal_aci.c ****     BLUENRG_memcpy((void *) &cp0->Data, (const void *) Data, Data_Length*sizeof(uint8_t));
 1907              		.loc 1 448 5 view .LVU602
 1908 001a 2246     		mov	r2, r4
 1909              	.LVL119:
 1910              		.loc 1 448 5 is_stmt 0 view .LVU603
 1911 001c 0DF10A00 		add	r0, sp, #10
 1912              	.LVL120:
 1913              		.loc 1 448 5 view .LVU604
 1914 0020 FFF7FEFF 		bl	memcpy
 1915              	.LVL121:
 449:Middlewares/ST/BlueNRG-2/hci/controller/bluenrg1_hal_aci.c ****     index_input += Data_Length*sizeof(uint8_t);
 1916              		.loc 1 449 5 is_stmt 1 view .LVU605
 1917              		.loc 1 449 17 is_stmt 0 view .LVU606
 1918 0024 0634     		adds	r4, r4, #6
 1919 0026 E4B2     		uxtb	r4, r4
 1920              	.LVL122:
 450:Middlewares/ST/BlueNRG-2/hci/controller/bluenrg1_hal_aci.c ****   }
 451:Middlewares/ST/BlueNRG-2/hci/controller/bluenrg1_hal_aci.c ****   BLUENRG_memset(&rq, 0, sizeof(rq));
 1921              		.loc 1 451 3 is_stmt 1 view .LVU607
 1922 0028 4295     		str	r5, [sp, #264]
 1923 002a 4395     		str	r5, [sp, #268]
 1924 002c 4495     		str	r5, [sp, #272]
 1925 002e 4595     		str	r5, [sp, #276]
 1926 0030 4695     		str	r5, [sp, #280]
 1927 0032 4795     		str	r5, [sp, #284]
 452:Middlewares/ST/BlueNRG-2/hci/controller/bluenrg1_hal_aci.c ****   rq.ogf = 0x3f;
 1928              		.loc 1 452 3 view .LVU608
 1929              		.loc 1 452 10 is_stmt 0 view .LVU609
 1930 0034 3F23     		movs	r3, #63
 1931 0036 ADF80831 		strh	r3, [sp, #264]	@ movhi
 453:Middlewares/ST/BlueNRG-2/hci/controller/bluenrg1_hal_aci.c ****   rq.ocf = 0x027;
 1932              		.loc 1 453 3 is_stmt 1 view .LVU610
 1933              		.loc 1 453 10 is_stmt 0 view .LVU611
 1934 003a 2723     		movs	r3, #39
 1935 003c ADF80A31 		strh	r3, [sp, #266]	@ movhi
 454:Middlewares/ST/BlueNRG-2/hci/controller/bluenrg1_hal_aci.c ****   rq.cparam = cmd_buffer;
 1936              		.loc 1 454 3 is_stmt 1 view .LVU612
 1937              		.loc 1 454 13 is_stmt 0 view .LVU613
 1938 0040 4496     		str	r6, [sp, #272]
 455:Middlewares/ST/BlueNRG-2/hci/controller/bluenrg1_hal_aci.c ****   rq.clen = index_input;
 1939              		.loc 1 455 3 is_stmt 1 view .LVU614
 1940              		.loc 1 455 11 is_stmt 0 view .LVU615
 1941 0042 4594     		str	r4, [sp, #276]
 456:Middlewares/ST/BlueNRG-2/hci/controller/bluenrg1_hal_aci.c ****   rq.rparam = &status;
 1942              		.loc 1 456 3 is_stmt 1 view .LVU616
 1943              		.loc 1 456 13 is_stmt 0 view .LVU617
 1944 0044 4697     		str	r7, [sp, #280]
 457:Middlewares/ST/BlueNRG-2/hci/controller/bluenrg1_hal_aci.c ****   rq.rlen = 1;
 1945              		.loc 1 457 3 is_stmt 1 view .LVU618
 1946              		.loc 1 457 11 is_stmt 0 view .LVU619
ARM GAS  C:\Users\zafee\AppData\Local\Temp\cc9GNLBQ.s 			page 43


 1947 0046 0123     		movs	r3, #1
 1948 0048 4793     		str	r3, [sp, #284]
 458:Middlewares/ST/BlueNRG-2/hci/controller/bluenrg1_hal_aci.c ****   if (hci_send_req(&rq, FALSE) < 0)
 1949              		.loc 1 458 3 is_stmt 1 view .LVU620
 1950              		.loc 1 458 7 is_stmt 0 view .LVU621
 1951 004a 2946     		mov	r1, r5
 1952 004c 42A8     		add	r0, sp, #264
 1953 004e FFF7FEFF 		bl	hci_send_req
 1954              	.LVL123:
 1955              		.loc 1 458 6 view .LVU622
 1956 0052 A842     		cmp	r0, r5
 1957 0054 03DB     		blt	.L81
 459:Middlewares/ST/BlueNRG-2/hci/controller/bluenrg1_hal_aci.c ****     return BLE_STATUS_TIMEOUT;
 460:Middlewares/ST/BlueNRG-2/hci/controller/bluenrg1_hal_aci.c ****   if (status) {
 1958              		.loc 1 460 3 is_stmt 1 view .LVU623
 1959              		.loc 1 460 7 is_stmt 0 view .LVU624
 1960 0056 9DF80300 		ldrb	r0, [sp, #3]	@ zero_extendqisi2
 1961              	.L80:
 461:Middlewares/ST/BlueNRG-2/hci/controller/bluenrg1_hal_aci.c ****     return status;
 462:Middlewares/ST/BlueNRG-2/hci/controller/bluenrg1_hal_aci.c ****   }
 463:Middlewares/ST/BlueNRG-2/hci/controller/bluenrg1_hal_aci.c ****   return BLE_STATUS_SUCCESS;
 464:Middlewares/ST/BlueNRG-2/hci/controller/bluenrg1_hal_aci.c **** }
 1962              		.loc 1 464 1 view .LVU625
 1963 005a 49B0     		add	sp, sp, #292
 1964              		.cfi_remember_state
 1965              		.cfi_def_cfa_offset 20
 1966              		@ sp needed
 1967 005c F0BD     		pop	{r4, r5, r6, r7, pc}
 1968              	.LVL124:
 1969              	.L81:
 1970              		.cfi_restore_state
 459:Middlewares/ST/BlueNRG-2/hci/controller/bluenrg1_hal_aci.c ****     return BLE_STATUS_TIMEOUT;
 1971              		.loc 1 459 12 view .LVU626
 1972 005e FF20     		movs	r0, #255
 1973 0060 FBE7     		b	.L80
 1974              		.cfi_endproc
 1975              	.LFE149:
 1977              		.section	.text.aci_hal_updater_read_data_blk,"ax",%progbits
 1978              		.align	1
 1979              		.global	aci_hal_updater_read_data_blk
 1980              		.syntax unified
 1981              		.thumb
 1982              		.thumb_func
 1984              	aci_hal_updater_read_data_blk:
 1985              	.LVL125:
 1986              	.LFB150:
 465:Middlewares/ST/BlueNRG-2/hci/controller/bluenrg1_hal_aci.c **** tBleStatus aci_hal_updater_read_data_blk(uint32_t Address,
 466:Middlewares/ST/BlueNRG-2/hci/controller/bluenrg1_hal_aci.c ****                                          uint16_t Data_Length,
 467:Middlewares/ST/BlueNRG-2/hci/controller/bluenrg1_hal_aci.c ****                                          uint8_t Data[])
 468:Middlewares/ST/BlueNRG-2/hci/controller/bluenrg1_hal_aci.c **** {
 1987              		.loc 1 468 1 is_stmt 1 view -0
 1988              		.cfi_startproc
 1989              		@ args = 0, pretend = 0, frame = 416
 1990              		@ frame_needed = 0, uses_anonymous_args = 0
 1991              		.loc 1 468 1 is_stmt 0 view .LVU628
 1992 0000 2DE9F041 		push	{r4, r5, r6, r7, r8, lr}
 1993              		.cfi_def_cfa_offset 24
ARM GAS  C:\Users\zafee\AppData\Local\Temp\cc9GNLBQ.s 			page 44


 1994              		.cfi_offset 4, -24
 1995              		.cfi_offset 5, -20
 1996              		.cfi_offset 6, -16
 1997              		.cfi_offset 7, -12
 1998              		.cfi_offset 8, -8
 1999              		.cfi_offset 14, -4
 2000 0004 E8B0     		sub	sp, sp, #416
 2001              		.cfi_def_cfa_offset 440
 2002 0006 0546     		mov	r5, r0
 2003 0008 0C46     		mov	r4, r1
 2004 000a 1646     		mov	r6, r2
 469:Middlewares/ST/BlueNRG-2/hci/controller/bluenrg1_hal_aci.c ****   struct hci_request rq;
 2005              		.loc 1 469 3 is_stmt 1 view .LVU629
 470:Middlewares/ST/BlueNRG-2/hci/controller/bluenrg1_hal_aci.c ****   uint8_t cmd_buffer[258];
 2006              		.loc 1 470 3 view .LVU630
 471:Middlewares/ST/BlueNRG-2/hci/controller/bluenrg1_hal_aci.c ****   aci_hal_updater_read_data_blk_cp0 *cp0 = (aci_hal_updater_read_data_blk_cp0*)(cmd_buffer);
 2007              		.loc 1 471 3 view .LVU631
 2008              	.LVL126:
 472:Middlewares/ST/BlueNRG-2/hci/controller/bluenrg1_hal_aci.c ****   aci_hal_updater_read_data_blk_rp0 resp;
 2009              		.loc 1 472 3 view .LVU632
 473:Middlewares/ST/BlueNRG-2/hci/controller/bluenrg1_hal_aci.c ****   BLUENRG_memset(&resp, 0, sizeof(resp));
 2010              		.loc 1 473 3 view .LVU633
 2011 000c 0DF10408 		add	r8, sp, #4
 2012 0010 8027     		movs	r7, #128
 2013 0012 3A46     		mov	r2, r7
 2014              	.LVL127:
 2015              		.loc 1 473 3 is_stmt 0 view .LVU634
 2016 0014 0021     		movs	r1, #0
 2017              	.LVL128:
 2018              		.loc 1 473 3 view .LVU635
 2019 0016 4046     		mov	r0, r8
 2020              	.LVL129:
 2021              		.loc 1 473 3 view .LVU636
 2022 0018 FFF7FEFF 		bl	memset
 2023              	.LVL130:
 474:Middlewares/ST/BlueNRG-2/hci/controller/bluenrg1_hal_aci.c ****   uint8_t index_input = 0;
 2024              		.loc 1 474 3 is_stmt 1 view .LVU637
 475:Middlewares/ST/BlueNRG-2/hci/controller/bluenrg1_hal_aci.c ****   cp0->Address = htob(Address, 4);
 2025              		.loc 1 475 3 view .LVU638
 2026              		.loc 1 475 16 is_stmt 0 view .LVU639
 2027 001c 21AB     		add	r3, sp, #132
 2028              	.LVL131:
 2029              		.loc 1 475 16 view .LVU640
 2030 001e 2195     		str	r5, [sp, #132]
 476:Middlewares/ST/BlueNRG-2/hci/controller/bluenrg1_hal_aci.c ****   index_input += 4;
 2031              		.loc 1 476 3 is_stmt 1 view .LVU641
 2032              	.LVL132:
 477:Middlewares/ST/BlueNRG-2/hci/controller/bluenrg1_hal_aci.c ****   cp0->Data_Length = htob(Data_Length, 2);
 2033              		.loc 1 477 3 view .LVU642
 2034              		.loc 1 477 20 is_stmt 0 view .LVU643
 2035 0020 ADF88840 		strh	r4, [sp, #136]	@ movhi
 478:Middlewares/ST/BlueNRG-2/hci/controller/bluenrg1_hal_aci.c ****   index_input += 2;
 2036              		.loc 1 478 3 is_stmt 1 view .LVU644
 2037              	.LVL133:
 479:Middlewares/ST/BlueNRG-2/hci/controller/bluenrg1_hal_aci.c ****   BLUENRG_memset(&rq, 0, sizeof(rq));
 2038              		.loc 1 479 3 view .LVU645
 2039 0024 0021     		movs	r1, #0
ARM GAS  C:\Users\zafee\AppData\Local\Temp\cc9GNLBQ.s 			page 45


 2040 0026 6291     		str	r1, [sp, #392]
 2041 0028 6391     		str	r1, [sp, #396]
 2042 002a 6491     		str	r1, [sp, #400]
 2043 002c 6591     		str	r1, [sp, #404]
 2044 002e 6691     		str	r1, [sp, #408]
 2045 0030 6791     		str	r1, [sp, #412]
 480:Middlewares/ST/BlueNRG-2/hci/controller/bluenrg1_hal_aci.c ****   rq.ogf = 0x3f;
 2046              		.loc 1 480 3 view .LVU646
 2047              		.loc 1 480 10 is_stmt 0 view .LVU647
 2048 0032 3F22     		movs	r2, #63
 2049 0034 ADF88821 		strh	r2, [sp, #392]	@ movhi
 481:Middlewares/ST/BlueNRG-2/hci/controller/bluenrg1_hal_aci.c ****   rq.ocf = 0x028;
 2050              		.loc 1 481 3 is_stmt 1 view .LVU648
 2051              		.loc 1 481 10 is_stmt 0 view .LVU649
 2052 0038 2822     		movs	r2, #40
 2053 003a ADF88A21 		strh	r2, [sp, #394]	@ movhi
 482:Middlewares/ST/BlueNRG-2/hci/controller/bluenrg1_hal_aci.c ****   rq.cparam = cmd_buffer;
 2054              		.loc 1 482 3 is_stmt 1 view .LVU650
 2055              		.loc 1 482 13 is_stmt 0 view .LVU651
 2056 003e 6493     		str	r3, [sp, #400]
 483:Middlewares/ST/BlueNRG-2/hci/controller/bluenrg1_hal_aci.c ****   rq.clen = index_input;
 2057              		.loc 1 483 3 is_stmt 1 view .LVU652
 2058              		.loc 1 483 11 is_stmt 0 view .LVU653
 2059 0040 0623     		movs	r3, #6
 2060              	.LVL134:
 2061              		.loc 1 483 11 view .LVU654
 2062 0042 6593     		str	r3, [sp, #404]
 484:Middlewares/ST/BlueNRG-2/hci/controller/bluenrg1_hal_aci.c ****   rq.rparam = &resp;
 2063              		.loc 1 484 3 is_stmt 1 view .LVU655
 2064              		.loc 1 484 13 is_stmt 0 view .LVU656
 2065 0044 CDF89881 		str	r8, [sp, #408]
 485:Middlewares/ST/BlueNRG-2/hci/controller/bluenrg1_hal_aci.c ****   rq.rlen = sizeof(resp);
 2066              		.loc 1 485 3 is_stmt 1 view .LVU657
 2067              		.loc 1 485 11 is_stmt 0 view .LVU658
 2068 0048 6797     		str	r7, [sp, #412]
 486:Middlewares/ST/BlueNRG-2/hci/controller/bluenrg1_hal_aci.c ****   if (hci_send_req(&rq, FALSE) < 0)
 2069              		.loc 1 486 3 is_stmt 1 view .LVU659
 2070              		.loc 1 486 7 is_stmt 0 view .LVU660
 2071 004a 62A8     		add	r0, sp, #392
 2072 004c FFF7FEFF 		bl	hci_send_req
 2073              	.LVL135:
 2074              		.loc 1 486 6 view .LVU661
 2075 0050 0028     		cmp	r0, #0
 2076 0052 0EDB     		blt	.L85
 487:Middlewares/ST/BlueNRG-2/hci/controller/bluenrg1_hal_aci.c ****     return BLE_STATUS_TIMEOUT;
 488:Middlewares/ST/BlueNRG-2/hci/controller/bluenrg1_hal_aci.c ****   if (resp.Status) {
 2077              		.loc 1 488 3 is_stmt 1 view .LVU662
 2078              		.loc 1 488 11 is_stmt 0 view .LVU663
 2079 0054 9DF80440 		ldrb	r4, [sp, #4]	@ zero_extendqisi2
 2080              		.loc 1 488 6 view .LVU664
 2081 0058 1CB1     		cbz	r4, .L87
 2082              	.L84:
 489:Middlewares/ST/BlueNRG-2/hci/controller/bluenrg1_hal_aci.c ****     return resp.Status;
 490:Middlewares/ST/BlueNRG-2/hci/controller/bluenrg1_hal_aci.c ****   }
 491:Middlewares/ST/BlueNRG-2/hci/controller/bluenrg1_hal_aci.c ****   BLUENRG_memcpy((void *) Data, (const void *) resp.Data, (rq.rlen-1)*sizeof(uint8_t));
 492:Middlewares/ST/BlueNRG-2/hci/controller/bluenrg1_hal_aci.c ****   return BLE_STATUS_SUCCESS;
 493:Middlewares/ST/BlueNRG-2/hci/controller/bluenrg1_hal_aci.c **** }
ARM GAS  C:\Users\zafee\AppData\Local\Temp\cc9GNLBQ.s 			page 46


 2083              		.loc 1 493 1 view .LVU665
 2084 005a 2046     		mov	r0, r4
 2085 005c 68B0     		add	sp, sp, #416
 2086              		.cfi_remember_state
 2087              		.cfi_def_cfa_offset 24
 2088              		@ sp needed
 2089 005e BDE8F081 		pop	{r4, r5, r6, r7, r8, pc}
 2090              	.LVL136:
 2091              	.L87:
 2092              		.cfi_restore_state
 491:Middlewares/ST/BlueNRG-2/hci/controller/bluenrg1_hal_aci.c ****   return BLE_STATUS_SUCCESS;
 2093              		.loc 1 491 3 is_stmt 1 view .LVU666
 2094 0062 679A     		ldr	r2, [sp, #412]
 2095 0064 013A     		subs	r2, r2, #1
 2096 0066 0DF10501 		add	r1, sp, #5
 2097 006a 3046     		mov	r0, r6
 2098 006c FFF7FEFF 		bl	memcpy
 2099              	.LVL137:
 492:Middlewares/ST/BlueNRG-2/hci/controller/bluenrg1_hal_aci.c **** }
 2100              		.loc 1 492 3 view .LVU667
 492:Middlewares/ST/BlueNRG-2/hci/controller/bluenrg1_hal_aci.c **** }
 2101              		.loc 1 492 10 is_stmt 0 view .LVU668
 2102 0070 F3E7     		b	.L84
 2103              	.L85:
 487:Middlewares/ST/BlueNRG-2/hci/controller/bluenrg1_hal_aci.c ****   if (resp.Status) {
 2104              		.loc 1 487 12 view .LVU669
 2105 0072 FF24     		movs	r4, #255
 2106 0074 F1E7     		b	.L84
 2107              		.cfi_endproc
 2108              	.LFE150:
 2110              		.section	.text.aci_hal_updater_calc_crc,"ax",%progbits
 2111              		.align	1
 2112              		.global	aci_hal_updater_calc_crc
 2113              		.syntax unified
 2114              		.thumb
 2115              		.thumb_func
 2117              	aci_hal_updater_calc_crc:
 2118              	.LVL138:
 2119              	.LFB151:
 494:Middlewares/ST/BlueNRG-2/hci/controller/bluenrg1_hal_aci.c **** tBleStatus aci_hal_updater_calc_crc(uint32_t Address,
 495:Middlewares/ST/BlueNRG-2/hci/controller/bluenrg1_hal_aci.c ****                                     uint8_t Num_Of_Sectors,
 496:Middlewares/ST/BlueNRG-2/hci/controller/bluenrg1_hal_aci.c ****                                     uint32_t *crc)
 497:Middlewares/ST/BlueNRG-2/hci/controller/bluenrg1_hal_aci.c **** {
 2120              		.loc 1 497 1 is_stmt 1 view -0
 2121              		.cfi_startproc
 2122              		@ args = 0, pretend = 0, frame = 296
 2123              		@ frame_needed = 0, uses_anonymous_args = 0
 2124              		.loc 1 497 1 is_stmt 0 view .LVU671
 2125 0000 70B5     		push	{r4, r5, r6, lr}
 2126              		.cfi_def_cfa_offset 16
 2127              		.cfi_offset 4, -16
 2128              		.cfi_offset 5, -12
 2129              		.cfi_offset 6, -8
 2130              		.cfi_offset 14, -4
 2131 0002 CAB0     		sub	sp, sp, #296
 2132              		.cfi_def_cfa_offset 312
 2133 0004 1646     		mov	r6, r2
ARM GAS  C:\Users\zafee\AppData\Local\Temp\cc9GNLBQ.s 			page 47


 498:Middlewares/ST/BlueNRG-2/hci/controller/bluenrg1_hal_aci.c ****   struct hci_request rq;
 2134              		.loc 1 498 3 is_stmt 1 view .LVU672
 499:Middlewares/ST/BlueNRG-2/hci/controller/bluenrg1_hal_aci.c ****   uint8_t cmd_buffer[258];
 2135              		.loc 1 499 3 view .LVU673
 500:Middlewares/ST/BlueNRG-2/hci/controller/bluenrg1_hal_aci.c ****   aci_hal_updater_calc_crc_cp0 *cp0 = (aci_hal_updater_calc_crc_cp0*)(cmd_buffer);
 2136              		.loc 1 500 3 view .LVU674
 2137              	.LVL139:
 501:Middlewares/ST/BlueNRG-2/hci/controller/bluenrg1_hal_aci.c ****   aci_hal_updater_calc_crc_rp0 resp;
 2138              		.loc 1 501 3 view .LVU675
 502:Middlewares/ST/BlueNRG-2/hci/controller/bluenrg1_hal_aci.c ****   BLUENRG_memset(&resp, 0, sizeof(resp));
 2139              		.loc 1 502 3 view .LVU676
 2140 0006 01AC     		add	r4, sp, #4
 2141 0008 0023     		movs	r3, #0
 2142 000a 0193     		str	r3, [sp, #4]
 2143 000c 8DF80830 		strb	r3, [sp, #8]
 503:Middlewares/ST/BlueNRG-2/hci/controller/bluenrg1_hal_aci.c ****   uint8_t index_input = 0;
 2144              		.loc 1 503 3 view .LVU677
 2145              	.LVL140:
 504:Middlewares/ST/BlueNRG-2/hci/controller/bluenrg1_hal_aci.c ****   cp0->Address = htob(Address, 4);
 2146              		.loc 1 504 3 view .LVU678
 2147              		.loc 1 504 16 is_stmt 0 view .LVU679
 2148 0010 03AD     		add	r5, sp, #12
 2149              	.LVL141:
 2150              		.loc 1 504 16 view .LVU680
 2151 0012 0390     		str	r0, [sp, #12]
 505:Middlewares/ST/BlueNRG-2/hci/controller/bluenrg1_hal_aci.c ****   index_input += 4;
 2152              		.loc 1 505 3 is_stmt 1 view .LVU681
 2153              	.LVL142:
 506:Middlewares/ST/BlueNRG-2/hci/controller/bluenrg1_hal_aci.c ****   cp0->Num_Of_Sectors = htob(Num_Of_Sectors, 1);
 2154              		.loc 1 506 3 view .LVU682
 2155              		.loc 1 506 23 is_stmt 0 view .LVU683
 2156 0014 8DF81010 		strb	r1, [sp, #16]
 507:Middlewares/ST/BlueNRG-2/hci/controller/bluenrg1_hal_aci.c ****   index_input += 1;
 2157              		.loc 1 507 3 is_stmt 1 view .LVU684
 2158              	.LVL143:
 508:Middlewares/ST/BlueNRG-2/hci/controller/bluenrg1_hal_aci.c ****   BLUENRG_memset(&rq, 0, sizeof(rq));
 2159              		.loc 1 508 3 view .LVU685
 2160 0018 4493     		str	r3, [sp, #272]
 2161 001a 4593     		str	r3, [sp, #276]
 2162 001c 4693     		str	r3, [sp, #280]
 2163 001e 4793     		str	r3, [sp, #284]
 2164 0020 4893     		str	r3, [sp, #288]
 2165 0022 4993     		str	r3, [sp, #292]
 509:Middlewares/ST/BlueNRG-2/hci/controller/bluenrg1_hal_aci.c ****   rq.ogf = 0x3f;
 2166              		.loc 1 509 3 view .LVU686
 2167              		.loc 1 509 10 is_stmt 0 view .LVU687
 2168 0024 3F22     		movs	r2, #63
 2169              	.LVL144:
 2170              		.loc 1 509 10 view .LVU688
 2171 0026 ADF81021 		strh	r2, [sp, #272]	@ movhi
 510:Middlewares/ST/BlueNRG-2/hci/controller/bluenrg1_hal_aci.c ****   rq.ocf = 0x029;
 2172              		.loc 1 510 3 is_stmt 1 view .LVU689
 2173              		.loc 1 510 10 is_stmt 0 view .LVU690
 2174 002a 2922     		movs	r2, #41
 2175 002c ADF81221 		strh	r2, [sp, #274]	@ movhi
 511:Middlewares/ST/BlueNRG-2/hci/controller/bluenrg1_hal_aci.c ****   rq.cparam = cmd_buffer;
 2176              		.loc 1 511 3 is_stmt 1 view .LVU691
ARM GAS  C:\Users\zafee\AppData\Local\Temp\cc9GNLBQ.s 			page 48


 2177              		.loc 1 511 13 is_stmt 0 view .LVU692
 2178 0030 4695     		str	r5, [sp, #280]
 512:Middlewares/ST/BlueNRG-2/hci/controller/bluenrg1_hal_aci.c ****   rq.clen = index_input;
 2179              		.loc 1 512 3 is_stmt 1 view .LVU693
 2180              		.loc 1 512 11 is_stmt 0 view .LVU694
 2181 0032 0522     		movs	r2, #5
 2182 0034 4792     		str	r2, [sp, #284]
 513:Middlewares/ST/BlueNRG-2/hci/controller/bluenrg1_hal_aci.c ****   rq.rparam = &resp;
 2183              		.loc 1 513 3 is_stmt 1 view .LVU695
 2184              		.loc 1 513 13 is_stmt 0 view .LVU696
 2185 0036 4894     		str	r4, [sp, #288]
 514:Middlewares/ST/BlueNRG-2/hci/controller/bluenrg1_hal_aci.c ****   rq.rlen = sizeof(resp);
 2186              		.loc 1 514 3 is_stmt 1 view .LVU697
 2187              		.loc 1 514 11 is_stmt 0 view .LVU698
 2188 0038 4992     		str	r2, [sp, #292]
 515:Middlewares/ST/BlueNRG-2/hci/controller/bluenrg1_hal_aci.c ****   if (hci_send_req(&rq, FALSE) < 0)
 2189              		.loc 1 515 3 is_stmt 1 view .LVU699
 2190              		.loc 1 515 7 is_stmt 0 view .LVU700
 2191 003a 1946     		mov	r1, r3
 2192              	.LVL145:
 2193              		.loc 1 515 7 view .LVU701
 2194 003c 44A8     		add	r0, sp, #272
 2195              	.LVL146:
 2196              		.loc 1 515 7 view .LVU702
 2197 003e FFF7FEFF 		bl	hci_send_req
 2198              	.LVL147:
 2199              		.loc 1 515 6 view .LVU703
 2200 0042 0028     		cmp	r0, #0
 2201 0044 07DB     		blt	.L90
 516:Middlewares/ST/BlueNRG-2/hci/controller/bluenrg1_hal_aci.c ****     return BLE_STATUS_TIMEOUT;
 517:Middlewares/ST/BlueNRG-2/hci/controller/bluenrg1_hal_aci.c ****   if (resp.Status) {
 2202              		.loc 1 517 3 is_stmt 1 view .LVU704
 2203              		.loc 1 517 11 is_stmt 0 view .LVU705
 2204 0046 9DF80400 		ldrb	r0, [sp, #4]	@ zero_extendqisi2
 2205              		.loc 1 517 6 view .LVU706
 2206 004a 10B9     		cbnz	r0, .L89
 518:Middlewares/ST/BlueNRG-2/hci/controller/bluenrg1_hal_aci.c ****     return resp.Status;
 519:Middlewares/ST/BlueNRG-2/hci/controller/bluenrg1_hal_aci.c ****   }
 520:Middlewares/ST/BlueNRG-2/hci/controller/bluenrg1_hal_aci.c ****   *crc = btoh(resp.crc, 4);
 2207              		.loc 1 520 3 is_stmt 1 view .LVU707
 2208              		.loc 1 520 10 is_stmt 0 view .LVU708
 2209 004c DDF80530 		ldr	r3, [sp, #5]	@ unaligned
 2210              		.loc 1 520 8 view .LVU709
 2211 0050 3360     		str	r3, [r6]
 521:Middlewares/ST/BlueNRG-2/hci/controller/bluenrg1_hal_aci.c ****   return BLE_STATUS_SUCCESS;
 2212              		.loc 1 521 3 is_stmt 1 view .LVU710
 2213              	.L89:
 522:Middlewares/ST/BlueNRG-2/hci/controller/bluenrg1_hal_aci.c **** }
 2214              		.loc 1 522 1 is_stmt 0 view .LVU711
 2215 0052 4AB0     		add	sp, sp, #296
 2216              		.cfi_remember_state
 2217              		.cfi_def_cfa_offset 16
 2218              		@ sp needed
 2219 0054 70BD     		pop	{r4, r5, r6, pc}
 2220              	.LVL148:
 2221              	.L90:
 2222              		.cfi_restore_state
ARM GAS  C:\Users\zafee\AppData\Local\Temp\cc9GNLBQ.s 			page 49


 516:Middlewares/ST/BlueNRG-2/hci/controller/bluenrg1_hal_aci.c ****   if (resp.Status) {
 2223              		.loc 1 516 12 view .LVU712
 2224 0056 FF20     		movs	r0, #255
 2225 0058 FBE7     		b	.L89
 2226              		.cfi_endproc
 2227              	.LFE151:
 2229              		.section	.text.aci_hal_updater_hw_version,"ax",%progbits
 2230              		.align	1
 2231              		.global	aci_hal_updater_hw_version
 2232              		.syntax unified
 2233              		.thumb
 2234              		.thumb_func
 2236              	aci_hal_updater_hw_version:
 2237              	.LVL149:
 2238              	.LFB152:
 523:Middlewares/ST/BlueNRG-2/hci/controller/bluenrg1_hal_aci.c **** tBleStatus aci_hal_updater_hw_version(uint8_t *HW_Version)
 524:Middlewares/ST/BlueNRG-2/hci/controller/bluenrg1_hal_aci.c **** {
 2239              		.loc 1 524 1 is_stmt 1 view -0
 2240              		.cfi_startproc
 2241              		@ args = 0, pretend = 0, frame = 32
 2242              		@ frame_needed = 0, uses_anonymous_args = 0
 2243              		.loc 1 524 1 is_stmt 0 view .LVU714
 2244 0000 10B5     		push	{r4, lr}
 2245              		.cfi_def_cfa_offset 8
 2246              		.cfi_offset 4, -8
 2247              		.cfi_offset 14, -4
 2248 0002 88B0     		sub	sp, sp, #32
 2249              		.cfi_def_cfa_offset 40
 2250 0004 0446     		mov	r4, r0
 525:Middlewares/ST/BlueNRG-2/hci/controller/bluenrg1_hal_aci.c ****   struct hci_request rq;
 2251              		.loc 1 525 3 is_stmt 1 view .LVU715
 526:Middlewares/ST/BlueNRG-2/hci/controller/bluenrg1_hal_aci.c ****   aci_hal_updater_hw_version_rp0 resp;
 2252              		.loc 1 526 3 view .LVU716
 527:Middlewares/ST/BlueNRG-2/hci/controller/bluenrg1_hal_aci.c ****   BLUENRG_memset(&resp, 0, sizeof(resp));
 2253              		.loc 1 527 3 view .LVU717
 2254 0006 0021     		movs	r1, #0
 2255 0008 ADF80410 		strh	r1, [sp, #4]	@ movhi
 528:Middlewares/ST/BlueNRG-2/hci/controller/bluenrg1_hal_aci.c ****   BLUENRG_memset(&rq, 0, sizeof(rq));
 2256              		.loc 1 528 3 view .LVU718
 2257 000c 0291     		str	r1, [sp, #8]
 2258 000e 0391     		str	r1, [sp, #12]
 2259 0010 0491     		str	r1, [sp, #16]
 2260 0012 0591     		str	r1, [sp, #20]
 2261 0014 0691     		str	r1, [sp, #24]
 2262 0016 0791     		str	r1, [sp, #28]
 529:Middlewares/ST/BlueNRG-2/hci/controller/bluenrg1_hal_aci.c ****   rq.ogf = 0x3f;
 2263              		.loc 1 529 3 view .LVU719
 2264              		.loc 1 529 10 is_stmt 0 view .LVU720
 2265 0018 3F23     		movs	r3, #63
 2266 001a ADF80830 		strh	r3, [sp, #8]	@ movhi
 530:Middlewares/ST/BlueNRG-2/hci/controller/bluenrg1_hal_aci.c ****   rq.ocf = 0x02a;
 2267              		.loc 1 530 3 is_stmt 1 view .LVU721
 2268              		.loc 1 530 10 is_stmt 0 view .LVU722
 2269 001e 2A23     		movs	r3, #42
 2270 0020 ADF80A30 		strh	r3, [sp, #10]	@ movhi
 531:Middlewares/ST/BlueNRG-2/hci/controller/bluenrg1_hal_aci.c ****   rq.rparam = &resp;
 2271              		.loc 1 531 3 is_stmt 1 view .LVU723
ARM GAS  C:\Users\zafee\AppData\Local\Temp\cc9GNLBQ.s 			page 50


 2272              		.loc 1 531 13 is_stmt 0 view .LVU724
 2273 0024 01AB     		add	r3, sp, #4
 2274 0026 0693     		str	r3, [sp, #24]
 532:Middlewares/ST/BlueNRG-2/hci/controller/bluenrg1_hal_aci.c ****   rq.rlen = sizeof(resp);
 2275              		.loc 1 532 3 is_stmt 1 view .LVU725
 2276              		.loc 1 532 11 is_stmt 0 view .LVU726
 2277 0028 0223     		movs	r3, #2
 2278 002a 0793     		str	r3, [sp, #28]
 533:Middlewares/ST/BlueNRG-2/hci/controller/bluenrg1_hal_aci.c ****   if (hci_send_req(&rq, FALSE) < 0)
 2279              		.loc 1 533 3 is_stmt 1 view .LVU727
 2280              		.loc 1 533 7 is_stmt 0 view .LVU728
 2281 002c 02A8     		add	r0, sp, #8
 2282              	.LVL150:
 2283              		.loc 1 533 7 view .LVU729
 2284 002e FFF7FEFF 		bl	hci_send_req
 2285              	.LVL151:
 2286              		.loc 1 533 6 view .LVU730
 2287 0032 0028     		cmp	r0, #0
 2288 0034 07DB     		blt	.L94
 534:Middlewares/ST/BlueNRG-2/hci/controller/bluenrg1_hal_aci.c ****     return BLE_STATUS_TIMEOUT;
 535:Middlewares/ST/BlueNRG-2/hci/controller/bluenrg1_hal_aci.c ****   if (resp.Status) {
 2289              		.loc 1 535 3 is_stmt 1 view .LVU731
 2290              		.loc 1 535 11 is_stmt 0 view .LVU732
 2291 0036 9DF80400 		ldrb	r0, [sp, #4]	@ zero_extendqisi2
 2292              		.loc 1 535 6 view .LVU733
 2293 003a 10B9     		cbnz	r0, .L93
 536:Middlewares/ST/BlueNRG-2/hci/controller/bluenrg1_hal_aci.c ****     return resp.Status;
 537:Middlewares/ST/BlueNRG-2/hci/controller/bluenrg1_hal_aci.c ****   }
 538:Middlewares/ST/BlueNRG-2/hci/controller/bluenrg1_hal_aci.c ****   *HW_Version = btoh(resp.HW_Version, 1);
 2294              		.loc 1 538 3 is_stmt 1 view .LVU734
 2295              		.loc 1 538 17 is_stmt 0 view .LVU735
 2296 003c 9DF80530 		ldrb	r3, [sp, #5]	@ zero_extendqisi2
 2297              		.loc 1 538 15 view .LVU736
 2298 0040 2370     		strb	r3, [r4]
 539:Middlewares/ST/BlueNRG-2/hci/controller/bluenrg1_hal_aci.c ****   return BLE_STATUS_SUCCESS;
 2299              		.loc 1 539 3 is_stmt 1 view .LVU737
 2300              	.L93:
 540:Middlewares/ST/BlueNRG-2/hci/controller/bluenrg1_hal_aci.c **** }
 2301              		.loc 1 540 1 is_stmt 0 view .LVU738
 2302 0042 08B0     		add	sp, sp, #32
 2303              		.cfi_remember_state
 2304              		.cfi_def_cfa_offset 8
 2305              		@ sp needed
 2306 0044 10BD     		pop	{r4, pc}
 2307              	.LVL152:
 2308              	.L94:
 2309              		.cfi_restore_state
 534:Middlewares/ST/BlueNRG-2/hci/controller/bluenrg1_hal_aci.c ****   if (resp.Status) {
 2310              		.loc 1 534 12 view .LVU739
 2311 0046 FF20     		movs	r0, #255
 2312 0048 FBE7     		b	.L93
 2313              		.cfi_endproc
 2314              	.LFE152:
 2316              		.section	.text.aci_hal_transmitter_test_packets,"ax",%progbits
 2317              		.align	1
 2318              		.global	aci_hal_transmitter_test_packets
 2319              		.syntax unified
ARM GAS  C:\Users\zafee\AppData\Local\Temp\cc9GNLBQ.s 			page 51


 2320              		.thumb
 2321              		.thumb_func
 2323              	aci_hal_transmitter_test_packets:
 2324              	.LVL153:
 2325              	.LFB153:
 541:Middlewares/ST/BlueNRG-2/hci/controller/bluenrg1_hal_aci.c **** tBleStatus aci_hal_transmitter_test_packets(uint8_t TX_Frequency,
 542:Middlewares/ST/BlueNRG-2/hci/controller/bluenrg1_hal_aci.c ****                                             uint8_t Length_Of_Test_Data,
 543:Middlewares/ST/BlueNRG-2/hci/controller/bluenrg1_hal_aci.c ****                                             uint8_t Packet_Payload,
 544:Middlewares/ST/BlueNRG-2/hci/controller/bluenrg1_hal_aci.c ****                                             uint16_t Number_Of_Packets)
 545:Middlewares/ST/BlueNRG-2/hci/controller/bluenrg1_hal_aci.c **** {
 2326              		.loc 1 545 1 is_stmt 1 view -0
 2327              		.cfi_startproc
 2328              		@ args = 0, pretend = 0, frame = 288
 2329              		@ frame_needed = 0, uses_anonymous_args = 0
 2330              		.loc 1 545 1 is_stmt 0 view .LVU741
 2331 0000 30B5     		push	{r4, r5, lr}
 2332              		.cfi_def_cfa_offset 12
 2333              		.cfi_offset 4, -12
 2334              		.cfi_offset 5, -8
 2335              		.cfi_offset 14, -4
 2336 0002 C9B0     		sub	sp, sp, #292
 2337              		.cfi_def_cfa_offset 304
 2338 0004 8C46     		mov	ip, r1
 546:Middlewares/ST/BlueNRG-2/hci/controller/bluenrg1_hal_aci.c ****   struct hci_request rq;
 2339              		.loc 1 546 3 is_stmt 1 view .LVU742
 547:Middlewares/ST/BlueNRG-2/hci/controller/bluenrg1_hal_aci.c ****   uint8_t cmd_buffer[258];
 2340              		.loc 1 547 3 view .LVU743
 548:Middlewares/ST/BlueNRG-2/hci/controller/bluenrg1_hal_aci.c ****   aci_hal_transmitter_test_packets_cp0 *cp0 = (aci_hal_transmitter_test_packets_cp0*)(cmd_buffer);
 2341              		.loc 1 548 3 view .LVU744
 2342              	.LVL154:
 549:Middlewares/ST/BlueNRG-2/hci/controller/bluenrg1_hal_aci.c ****   tBleStatus status = 0;
 2343              		.loc 1 549 3 view .LVU745
 2344              		.loc 1 549 14 is_stmt 0 view .LVU746
 2345 0006 0DF10305 		add	r5, sp, #3
 2346 000a 0021     		movs	r1, #0
 2347              	.LVL155:
 2348              		.loc 1 549 14 view .LVU747
 2349 000c 8DF80310 		strb	r1, [sp, #3]
 550:Middlewares/ST/BlueNRG-2/hci/controller/bluenrg1_hal_aci.c ****   uint8_t index_input = 0;
 2350              		.loc 1 550 3 is_stmt 1 view .LVU748
 2351              	.LVL156:
 551:Middlewares/ST/BlueNRG-2/hci/controller/bluenrg1_hal_aci.c ****   cp0->TX_Frequency = htob(TX_Frequency, 1);
 2352              		.loc 1 551 3 view .LVU749
 2353              		.loc 1 551 21 is_stmt 0 view .LVU750
 2354 0010 01AC     		add	r4, sp, #4
 2355              	.LVL157:
 2356              		.loc 1 551 21 view .LVU751
 2357 0012 8DF80400 		strb	r0, [sp, #4]
 552:Middlewares/ST/BlueNRG-2/hci/controller/bluenrg1_hal_aci.c ****   index_input += 1;
 2358              		.loc 1 552 3 is_stmt 1 view .LVU752
 2359              	.LVL158:
 553:Middlewares/ST/BlueNRG-2/hci/controller/bluenrg1_hal_aci.c ****   cp0->Length_Of_Test_Data = htob(Length_Of_Test_Data, 1);
 2360              		.loc 1 553 3 view .LVU753
 2361              		.loc 1 553 28 is_stmt 0 view .LVU754
 2362 0016 8DF805C0 		strb	ip, [sp, #5]
 554:Middlewares/ST/BlueNRG-2/hci/controller/bluenrg1_hal_aci.c ****   index_input += 1;
 2363              		.loc 1 554 3 is_stmt 1 view .LVU755
ARM GAS  C:\Users\zafee\AppData\Local\Temp\cc9GNLBQ.s 			page 52


 2364              	.LVL159:
 555:Middlewares/ST/BlueNRG-2/hci/controller/bluenrg1_hal_aci.c ****   cp0->Packet_Payload = htob(Packet_Payload, 1);
 2365              		.loc 1 555 3 view .LVU756
 2366              		.loc 1 555 23 is_stmt 0 view .LVU757
 2367 001a 8DF80620 		strb	r2, [sp, #6]
 556:Middlewares/ST/BlueNRG-2/hci/controller/bluenrg1_hal_aci.c ****   index_input += 1;
 2368              		.loc 1 556 3 is_stmt 1 view .LVU758
 2369              	.LVL160:
 557:Middlewares/ST/BlueNRG-2/hci/controller/bluenrg1_hal_aci.c ****   cp0->Number_Of_Packets = htob(Number_Of_Packets, 2);
 2370              		.loc 1 557 3 view .LVU759
 2371              		.loc 1 557 26 is_stmt 0 view .LVU760
 2372 001e ADF80730 		strh	r3, [sp, #7]	@ unaligned
 558:Middlewares/ST/BlueNRG-2/hci/controller/bluenrg1_hal_aci.c ****   index_input += 2;
 2373              		.loc 1 558 3 is_stmt 1 view .LVU761
 2374              	.LVL161:
 559:Middlewares/ST/BlueNRG-2/hci/controller/bluenrg1_hal_aci.c ****   BLUENRG_memset(&rq, 0, sizeof(rq));
 2375              		.loc 1 559 3 view .LVU762
 2376 0022 4291     		str	r1, [sp, #264]
 2377 0024 4391     		str	r1, [sp, #268]
 2378 0026 4491     		str	r1, [sp, #272]
 2379 0028 4591     		str	r1, [sp, #276]
 2380 002a 4691     		str	r1, [sp, #280]
 2381 002c 4791     		str	r1, [sp, #284]
 560:Middlewares/ST/BlueNRG-2/hci/controller/bluenrg1_hal_aci.c ****   rq.ogf = 0x3f;
 2382              		.loc 1 560 3 view .LVU763
 2383              		.loc 1 560 10 is_stmt 0 view .LVU764
 2384 002e 3F23     		movs	r3, #63
 2385              	.LVL162:
 2386              		.loc 1 560 10 view .LVU765
 2387 0030 ADF80831 		strh	r3, [sp, #264]	@ movhi
 561:Middlewares/ST/BlueNRG-2/hci/controller/bluenrg1_hal_aci.c ****   rq.ocf = 0x02b;
 2388              		.loc 1 561 3 is_stmt 1 view .LVU766
 2389              		.loc 1 561 10 is_stmt 0 view .LVU767
 2390 0034 2B23     		movs	r3, #43
 2391 0036 ADF80A31 		strh	r3, [sp, #266]	@ movhi
 562:Middlewares/ST/BlueNRG-2/hci/controller/bluenrg1_hal_aci.c ****   rq.cparam = cmd_buffer;
 2392              		.loc 1 562 3 is_stmt 1 view .LVU768
 2393              		.loc 1 562 13 is_stmt 0 view .LVU769
 2394 003a 4494     		str	r4, [sp, #272]
 563:Middlewares/ST/BlueNRG-2/hci/controller/bluenrg1_hal_aci.c ****   rq.clen = index_input;
 2395              		.loc 1 563 3 is_stmt 1 view .LVU770
 2396              		.loc 1 563 11 is_stmt 0 view .LVU771
 2397 003c 0523     		movs	r3, #5
 2398 003e 4593     		str	r3, [sp, #276]
 564:Middlewares/ST/BlueNRG-2/hci/controller/bluenrg1_hal_aci.c ****   rq.rparam = &status;
 2399              		.loc 1 564 3 is_stmt 1 view .LVU772
 2400              		.loc 1 564 13 is_stmt 0 view .LVU773
 2401 0040 4695     		str	r5, [sp, #280]
 565:Middlewares/ST/BlueNRG-2/hci/controller/bluenrg1_hal_aci.c ****   rq.rlen = 1;
 2402              		.loc 1 565 3 is_stmt 1 view .LVU774
 2403              		.loc 1 565 11 is_stmt 0 view .LVU775
 2404 0042 0123     		movs	r3, #1
 2405 0044 4793     		str	r3, [sp, #284]
 566:Middlewares/ST/BlueNRG-2/hci/controller/bluenrg1_hal_aci.c ****   if (hci_send_req(&rq, FALSE) < 0)
 2406              		.loc 1 566 3 is_stmt 1 view .LVU776
 2407              		.loc 1 566 7 is_stmt 0 view .LVU777
 2408 0046 42A8     		add	r0, sp, #264
ARM GAS  C:\Users\zafee\AppData\Local\Temp\cc9GNLBQ.s 			page 53


 2409              	.LVL163:
 2410              		.loc 1 566 7 view .LVU778
 2411 0048 FFF7FEFF 		bl	hci_send_req
 2412              	.LVL164:
 2413              		.loc 1 566 6 view .LVU779
 2414 004c 0028     		cmp	r0, #0
 2415 004e 03DB     		blt	.L98
 567:Middlewares/ST/BlueNRG-2/hci/controller/bluenrg1_hal_aci.c ****     return BLE_STATUS_TIMEOUT;
 568:Middlewares/ST/BlueNRG-2/hci/controller/bluenrg1_hal_aci.c ****   if (status) {
 2416              		.loc 1 568 3 is_stmt 1 view .LVU780
 2417              		.loc 1 568 7 is_stmt 0 view .LVU781
 2418 0050 9DF80300 		ldrb	r0, [sp, #3]	@ zero_extendqisi2
 2419              	.L97:
 569:Middlewares/ST/BlueNRG-2/hci/controller/bluenrg1_hal_aci.c ****     return status;
 570:Middlewares/ST/BlueNRG-2/hci/controller/bluenrg1_hal_aci.c ****   }
 571:Middlewares/ST/BlueNRG-2/hci/controller/bluenrg1_hal_aci.c ****   return BLE_STATUS_SUCCESS;
 572:Middlewares/ST/BlueNRG-2/hci/controller/bluenrg1_hal_aci.c **** }
 2420              		.loc 1 572 1 view .LVU782
 2421 0054 49B0     		add	sp, sp, #292
 2422              		.cfi_remember_state
 2423              		.cfi_def_cfa_offset 12
 2424              		@ sp needed
 2425 0056 30BD     		pop	{r4, r5, pc}
 2426              	.LVL165:
 2427              	.L98:
 2428              		.cfi_restore_state
 567:Middlewares/ST/BlueNRG-2/hci/controller/bluenrg1_hal_aci.c ****     return BLE_STATUS_TIMEOUT;
 2429              		.loc 1 567 12 view .LVU783
 2430 0058 FF20     		movs	r0, #255
 2431 005a FBE7     		b	.L97
 2432              		.cfi_endproc
 2433              	.LFE153:
 2435              		.text
 2436              	.Letext0:
 2437              		.file 2 "c:\\users\\zafee\\appdata\\roaming\\code - insiders\\user\\globalstorage\\bmd.stm32-for-v
 2438              		.file 3 "c:\\users\\zafee\\appdata\\roaming\\code - insiders\\user\\globalstorage\\bmd.stm32-for-v
 2439              		.file 4 "Middlewares/ST/BlueNRG-2/includes/ble_types.h"
 2440              		.file 5 "c:\\users\\zafee\\appdata\\roaming\\code - insiders\\user\\globalstorage\\bmd.stm32-for-v
 2441              		.file 6 "Middlewares/ST/BlueNRG-2/hci/hci_tl_patterns/Basic/hci_tl.h"
 2442              		.file 7 "Middlewares/ST/BlueNRG-2/includes/bluenrg1_types.h"
 2443              		.file 8 "c:\\users\\zafee\\appdata\\roaming\\code - insiders\\user\\globalstorage\\bmd.stm32-for-v
 2444              		.file 9 "<built-in>"
ARM GAS  C:\Users\zafee\AppData\Local\Temp\cc9GNLBQ.s 			page 54

