ARM GAS  C:\Users\zafee\AppData\Local\Temp\ccvOQAyH.s 			page 1


   1              		.cpu cortex-m4
   2              		.arch armv7e-m
   3              		.fpu fpv4-sp-d16
   4              		.eabi_attribute 27, 1
   5              		.eabi_attribute 28, 1
   6              		.eabi_attribute 20, 1
   7              		.eabi_attribute 21, 1
   8              		.eabi_attribute 23, 3
   9              		.eabi_attribute 24, 1
  10              		.eabi_attribute 25, 1
  11              		.eabi_attribute 26, 1
  12              		.eabi_attribute 30, 1
  13              		.eabi_attribute 34, 1
  14              		.eabi_attribute 18, 4
  15              		.file	"bluenrg1_events_cb.c"
  16              		.text
  17              	.Ltext0:
  18              		.cfi_sections	.debug_frame
  19              		.file 1 "Middlewares/ST/BlueNRG-2/hci/bluenrg1_events_cb.c"
  20              		.section	.text.hci_disconnection_complete_event,"ax",%progbits
  21              		.align	1
  22              		.weak	hci_disconnection_complete_event
  23              		.syntax unified
  24              		.thumb
  25              		.thumb_func
  27              	hci_disconnection_complete_event:
  28              	.LVL0:
  29              	.LFB130:
   1:Middlewares/ST/BlueNRG-2/hci/bluenrg1_events_cb.c **** /**
   2:Middlewares/ST/BlueNRG-2/hci/bluenrg1_events_cb.c ****   ******************************************************************************
   3:Middlewares/ST/BlueNRG-2/hci/bluenrg1_events_cb.c ****   * @file    bluenrg1_events_cb.c
   4:Middlewares/ST/BlueNRG-2/hci/bluenrg1_events_cb.c ****   * @author  SRA Application team
   5:Middlewares/ST/BlueNRG-2/hci/bluenrg1_events_cb.c ****   * @brief   Event callbacks for external uC - BlueNRG-x in network coprocessor 
   6:Middlewares/ST/BlueNRG-2/hci/bluenrg1_events_cb.c ****   *          mode
   7:Middlewares/ST/BlueNRG-2/hci/bluenrg1_events_cb.c ****   ******************************************************************************
   8:Middlewares/ST/BlueNRG-2/hci/bluenrg1_events_cb.c ****   * @attention
   9:Middlewares/ST/BlueNRG-2/hci/bluenrg1_events_cb.c ****   *
  10:Middlewares/ST/BlueNRG-2/hci/bluenrg1_events_cb.c ****   * Copyright (c) 2017 STMicroelectronics.
  11:Middlewares/ST/BlueNRG-2/hci/bluenrg1_events_cb.c ****   * All rights reserved.
  12:Middlewares/ST/BlueNRG-2/hci/bluenrg1_events_cb.c ****   *
  13:Middlewares/ST/BlueNRG-2/hci/bluenrg1_events_cb.c ****   * This software is licensed under terms that can be found in the LICENSE file
  14:Middlewares/ST/BlueNRG-2/hci/bluenrg1_events_cb.c ****   * in the root directory of this software component.
  15:Middlewares/ST/BlueNRG-2/hci/bluenrg1_events_cb.c ****   * If no LICENSE file comes with this software, it is provided AS-IS.
  16:Middlewares/ST/BlueNRG-2/hci/bluenrg1_events_cb.c ****   *
  17:Middlewares/ST/BlueNRG-2/hci/bluenrg1_events_cb.c ****   ******************************************************************************
  18:Middlewares/ST/BlueNRG-2/hci/bluenrg1_events_cb.c ****   */
  19:Middlewares/ST/BlueNRG-2/hci/bluenrg1_events_cb.c **** #include "compiler.h"
  20:Middlewares/ST/BlueNRG-2/hci/bluenrg1_events_cb.c **** #include "bluenrg1_events.h"
  21:Middlewares/ST/BlueNRG-2/hci/bluenrg1_events_cb.c **** 
  22:Middlewares/ST/BlueNRG-2/hci/bluenrg1_events_cb.c **** #include "bluenrg_conf.h"
  23:Middlewares/ST/BlueNRG-2/hci/bluenrg1_events_cb.c **** /**
  24:Middlewares/ST/BlueNRG-2/hci/bluenrg1_events_cb.c ****   * @brief The Disconnection Complete event occurs when a connection is terminated.
  25:Middlewares/ST/BlueNRG-2/hci/bluenrg1_events_cb.c **** The status parameter indicates if the disconnection was successful or not. The
  26:Middlewares/ST/BlueNRG-2/hci/bluenrg1_events_cb.c **** reason parameter indicates the reason for the disconnection if the disconnection
  27:Middlewares/ST/BlueNRG-2/hci/bluenrg1_events_cb.c **** was successful. If the disconnection was not successful, the value of the
  28:Middlewares/ST/BlueNRG-2/hci/bluenrg1_events_cb.c **** reason parameter can be ignored by the Host. For example, this can be the
  29:Middlewares/ST/BlueNRG-2/hci/bluenrg1_events_cb.c **** case if the Host has issued the Disconnect command and there was a parameter
ARM GAS  C:\Users\zafee\AppData\Local\Temp\ccvOQAyH.s 			page 2


  30:Middlewares/ST/BlueNRG-2/hci/bluenrg1_events_cb.c **** error, or the command was not presently allowed, or a Connection_Handle
  31:Middlewares/ST/BlueNRG-2/hci/bluenrg1_events_cb.c **** that didn't correspond to a connection was given.
  32:Middlewares/ST/BlueNRG-2/hci/bluenrg1_events_cb.c ****   * @param Status For standard error codes see Bluetooth specification, Vol. 2, part D. For proprie
  33:Middlewares/ST/BlueNRG-2/hci/bluenrg1_events_cb.c ****   * @param Connection_Handle Connection_Handle which was disconnected.
  34:Middlewares/ST/BlueNRG-2/hci/bluenrg1_events_cb.c ****   * Values:
  35:Middlewares/ST/BlueNRG-2/hci/bluenrg1_events_cb.c ****   - 0x0000 ... 0x0EFF
  36:Middlewares/ST/BlueNRG-2/hci/bluenrg1_events_cb.c ****   * @param Reason Reason for disconnection.
  37:Middlewares/ST/BlueNRG-2/hci/bluenrg1_events_cb.c ****   * Values:
  38:Middlewares/ST/BlueNRG-2/hci/bluenrg1_events_cb.c ****   - 0x00: Success
  39:Middlewares/ST/BlueNRG-2/hci/bluenrg1_events_cb.c ****   - 0x01: Unknown HCI Command
  40:Middlewares/ST/BlueNRG-2/hci/bluenrg1_events_cb.c ****   - 0x02: Unknown Connection Identifier
  41:Middlewares/ST/BlueNRG-2/hci/bluenrg1_events_cb.c ****   - 0x03: Hardware Failure
  42:Middlewares/ST/BlueNRG-2/hci/bluenrg1_events_cb.c ****   - 0x04: Page Timeout
  43:Middlewares/ST/BlueNRG-2/hci/bluenrg1_events_cb.c ****   - 0x05: Authentication Failure
  44:Middlewares/ST/BlueNRG-2/hci/bluenrg1_events_cb.c ****   - 0x06: PIN or Key Missing
  45:Middlewares/ST/BlueNRG-2/hci/bluenrg1_events_cb.c ****   - 0x07: Memory Capacity Exceeded
  46:Middlewares/ST/BlueNRG-2/hci/bluenrg1_events_cb.c ****   - 0x08: Connection Timeout
  47:Middlewares/ST/BlueNRG-2/hci/bluenrg1_events_cb.c ****   - 0x09: Connection Limit Exceeded
  48:Middlewares/ST/BlueNRG-2/hci/bluenrg1_events_cb.c ****   - 0x0A: Synchronous Connection Limit to a Device Exceeded
  49:Middlewares/ST/BlueNRG-2/hci/bluenrg1_events_cb.c ****   - 0x0B: ACL Connection Already Exists
  50:Middlewares/ST/BlueNRG-2/hci/bluenrg1_events_cb.c ****   - 0x0C: Command Disallowed
  51:Middlewares/ST/BlueNRG-2/hci/bluenrg1_events_cb.c ****   - 0x0D: Connection Rejected Due To Limited Resources
  52:Middlewares/ST/BlueNRG-2/hci/bluenrg1_events_cb.c ****   - 0x0E: Connection Rejected Due To Security Reasons
  53:Middlewares/ST/BlueNRG-2/hci/bluenrg1_events_cb.c ****   - 0x0F: Connection Rejected due to Unacceptable BD_ADDR
  54:Middlewares/ST/BlueNRG-2/hci/bluenrg1_events_cb.c ****   - 0x10: Connection Accept Timeout Exceeded
  55:Middlewares/ST/BlueNRG-2/hci/bluenrg1_events_cb.c ****   - 0x11: Unsupported Feature Or Parameter Value
  56:Middlewares/ST/BlueNRG-2/hci/bluenrg1_events_cb.c ****   - 0x12: Invalid HCI Command Parameters
  57:Middlewares/ST/BlueNRG-2/hci/bluenrg1_events_cb.c ****   - 0x13: Remote User Terminated Connection
  58:Middlewares/ST/BlueNRG-2/hci/bluenrg1_events_cb.c ****   - 0x14: Remote Device Terminated Connection due to Low Resources
  59:Middlewares/ST/BlueNRG-2/hci/bluenrg1_events_cb.c ****   - 0x15: Remote Device Terminated Connection due to Power Off
  60:Middlewares/ST/BlueNRG-2/hci/bluenrg1_events_cb.c ****   - 0x16: Connection Terminated By Local Host
  61:Middlewares/ST/BlueNRG-2/hci/bluenrg1_events_cb.c ****   - 0x17: Repeated Attempts
  62:Middlewares/ST/BlueNRG-2/hci/bluenrg1_events_cb.c ****   - 0x18: Pairing Not Allowed
  63:Middlewares/ST/BlueNRG-2/hci/bluenrg1_events_cb.c ****   - 0x19: Unknown LMP PDU
  64:Middlewares/ST/BlueNRG-2/hci/bluenrg1_events_cb.c ****   - 0x1A: Unsupported Remote Feature / Unsupported LMP Feature
  65:Middlewares/ST/BlueNRG-2/hci/bluenrg1_events_cb.c ****   - 0x1B: SCO Offset Rejected
  66:Middlewares/ST/BlueNRG-2/hci/bluenrg1_events_cb.c ****   - 0x1C: SCO Interval Rejected
  67:Middlewares/ST/BlueNRG-2/hci/bluenrg1_events_cb.c ****   - 0x1D: SCO Air Mode Rejected
  68:Middlewares/ST/BlueNRG-2/hci/bluenrg1_events_cb.c ****   - 0x1E: Invalid LMP Parameters
  69:Middlewares/ST/BlueNRG-2/hci/bluenrg1_events_cb.c ****   - 0x1F: Unspecified Error
  70:Middlewares/ST/BlueNRG-2/hci/bluenrg1_events_cb.c ****   - 0x20: Unsupported LMP Parameter Value
  71:Middlewares/ST/BlueNRG-2/hci/bluenrg1_events_cb.c ****   - 0x21: Role Change Not Allowed
  72:Middlewares/ST/BlueNRG-2/hci/bluenrg1_events_cb.c ****   - 0x22: LMP Response Timeout / LL Response Timeout
  73:Middlewares/ST/BlueNRG-2/hci/bluenrg1_events_cb.c ****   - 0x23: LMP Error Transaction Collision
  74:Middlewares/ST/BlueNRG-2/hci/bluenrg1_events_cb.c ****   - 0x24: LMP PDU Not Allowed
  75:Middlewares/ST/BlueNRG-2/hci/bluenrg1_events_cb.c ****   - 0x25: Encryption Mode Not Acceptable
  76:Middlewares/ST/BlueNRG-2/hci/bluenrg1_events_cb.c ****   - 0x26: Link Key cannot be Changed
  77:Middlewares/ST/BlueNRG-2/hci/bluenrg1_events_cb.c ****   - 0x27: Requested QoS Not Supported
  78:Middlewares/ST/BlueNRG-2/hci/bluenrg1_events_cb.c ****   - 0x28: Instant Passed
  79:Middlewares/ST/BlueNRG-2/hci/bluenrg1_events_cb.c ****   - 0x29: Pairing With Unit Key Not Supported
  80:Middlewares/ST/BlueNRG-2/hci/bluenrg1_events_cb.c ****   - 0x2A: Different Transaction Collision
  81:Middlewares/ST/BlueNRG-2/hci/bluenrg1_events_cb.c ****   - 0x2C: QoS Unacceptable Parameter
  82:Middlewares/ST/BlueNRG-2/hci/bluenrg1_events_cb.c ****   - 0x2D: QoS Rejected
  83:Middlewares/ST/BlueNRG-2/hci/bluenrg1_events_cb.c ****   - 0x2E: Channel Assessment Not Supported
  84:Middlewares/ST/BlueNRG-2/hci/bluenrg1_events_cb.c ****   - 0x2F: Insufficient Security
  85:Middlewares/ST/BlueNRG-2/hci/bluenrg1_events_cb.c ****   - 0x30: Parameter Out Of Mandatory Range
  86:Middlewares/ST/BlueNRG-2/hci/bluenrg1_events_cb.c ****   - 0x32: Role Switch Pending
ARM GAS  C:\Users\zafee\AppData\Local\Temp\ccvOQAyH.s 			page 3


  87:Middlewares/ST/BlueNRG-2/hci/bluenrg1_events_cb.c ****   - 0x34: Reserved Slot Violation
  88:Middlewares/ST/BlueNRG-2/hci/bluenrg1_events_cb.c ****   - 0x35: Role Switch Failed
  89:Middlewares/ST/BlueNRG-2/hci/bluenrg1_events_cb.c ****   - 0x36: Extended Inquiry Response Too Large
  90:Middlewares/ST/BlueNRG-2/hci/bluenrg1_events_cb.c ****   - 0x37: Secure Simple Pairing Not Supported by Host
  91:Middlewares/ST/BlueNRG-2/hci/bluenrg1_events_cb.c ****   - 0x38: Host Busy - Pairing
  92:Middlewares/ST/BlueNRG-2/hci/bluenrg1_events_cb.c ****   - 0x39: Connection Rejected due to No Suitable Channel Found
  93:Middlewares/ST/BlueNRG-2/hci/bluenrg1_events_cb.c ****   - 0x3A: Controller Busy
  94:Middlewares/ST/BlueNRG-2/hci/bluenrg1_events_cb.c ****   - 0x3B: Unacceptable Connection Interval
  95:Middlewares/ST/BlueNRG-2/hci/bluenrg1_events_cb.c ****   - 0x3C: Directed Advertising Timeout
  96:Middlewares/ST/BlueNRG-2/hci/bluenrg1_events_cb.c ****   - 0x3D: Connection Terminated Due to MIC Failure
  97:Middlewares/ST/BlueNRG-2/hci/bluenrg1_events_cb.c ****   - 0x3E: Connection Failed to be Established
  98:Middlewares/ST/BlueNRG-2/hci/bluenrg1_events_cb.c ****   - 0x3F: MAC of the 802.11 AMP
  99:Middlewares/ST/BlueNRG-2/hci/bluenrg1_events_cb.c ****   - 0x41: Failed
 100:Middlewares/ST/BlueNRG-2/hci/bluenrg1_events_cb.c ****   - 0x42: Invalid parameters
 101:Middlewares/ST/BlueNRG-2/hci/bluenrg1_events_cb.c ****   - 0x43: Busy
 102:Middlewares/ST/BlueNRG-2/hci/bluenrg1_events_cb.c ****   - 0x44: Invalid length
 103:Middlewares/ST/BlueNRG-2/hci/bluenrg1_events_cb.c ****   - 0x45: Pending
 104:Middlewares/ST/BlueNRG-2/hci/bluenrg1_events_cb.c ****   - 0x46: Not allowed
 105:Middlewares/ST/BlueNRG-2/hci/bluenrg1_events_cb.c ****   - 0x47: GATT error
 106:Middlewares/ST/BlueNRG-2/hci/bluenrg1_events_cb.c ****   - 0x48: Address not resolved
 107:Middlewares/ST/BlueNRG-2/hci/bluenrg1_events_cb.c ****   - 0x50: Invalid CID
 108:Middlewares/ST/BlueNRG-2/hci/bluenrg1_events_cb.c ****   - 0x5A: CSRK not found
 109:Middlewares/ST/BlueNRG-2/hci/bluenrg1_events_cb.c ****   - 0x5B: IRK not found
 110:Middlewares/ST/BlueNRG-2/hci/bluenrg1_events_cb.c ****   - 0x5C: Device not found in DB
 111:Middlewares/ST/BlueNRG-2/hci/bluenrg1_events_cb.c ****   - 0x5D: Security DB full
 112:Middlewares/ST/BlueNRG-2/hci/bluenrg1_events_cb.c ****   - 0x5E: Device not bonded
 113:Middlewares/ST/BlueNRG-2/hci/bluenrg1_events_cb.c ****   - 0x5F: Device in blacklist
 114:Middlewares/ST/BlueNRG-2/hci/bluenrg1_events_cb.c ****   - 0x60: Invalid handle
 115:Middlewares/ST/BlueNRG-2/hci/bluenrg1_events_cb.c ****   - 0x61: Invalid parameter
 116:Middlewares/ST/BlueNRG-2/hci/bluenrg1_events_cb.c ****   - 0x62: Out of handles
 117:Middlewares/ST/BlueNRG-2/hci/bluenrg1_events_cb.c ****   - 0x63: Invalid operation
 118:Middlewares/ST/BlueNRG-2/hci/bluenrg1_events_cb.c ****   - 0x64: Insufficient resources
 119:Middlewares/ST/BlueNRG-2/hci/bluenrg1_events_cb.c ****   - 0x65: Insufficient encryption key size
 120:Middlewares/ST/BlueNRG-2/hci/bluenrg1_events_cb.c ****   - 0x66: Characteristic already exist
 121:Middlewares/ST/BlueNRG-2/hci/bluenrg1_events_cb.c ****   - 0x82: No valid slot
 122:Middlewares/ST/BlueNRG-2/hci/bluenrg1_events_cb.c ****   - 0x83: Short window
 123:Middlewares/ST/BlueNRG-2/hci/bluenrg1_events_cb.c ****   - 0x84: New interval failed
 124:Middlewares/ST/BlueNRG-2/hci/bluenrg1_events_cb.c ****   - 0x85: Too large interval
 125:Middlewares/ST/BlueNRG-2/hci/bluenrg1_events_cb.c ****   - 0x86: Slot length failed
 126:Middlewares/ST/BlueNRG-2/hci/bluenrg1_events_cb.c ****   - 0xFA: Flash read failed
 127:Middlewares/ST/BlueNRG-2/hci/bluenrg1_events_cb.c ****   - 0xFB: Flash write failed
 128:Middlewares/ST/BlueNRG-2/hci/bluenrg1_events_cb.c ****   - 0xFC: Flash erase failed
 129:Middlewares/ST/BlueNRG-2/hci/bluenrg1_events_cb.c ****   * @retval None
 130:Middlewares/ST/BlueNRG-2/hci/bluenrg1_events_cb.c **** */
 131:Middlewares/ST/BlueNRG-2/hci/bluenrg1_events_cb.c **** WEAK_FUNCTION(void hci_disconnection_complete_event(uint8_t Status,
 132:Middlewares/ST/BlueNRG-2/hci/bluenrg1_events_cb.c ****                                       uint16_t Connection_Handle,
 133:Middlewares/ST/BlueNRG-2/hci/bluenrg1_events_cb.c ****                                       uint8_t Reason))
 134:Middlewares/ST/BlueNRG-2/hci/bluenrg1_events_cb.c **** {
  30              		.loc 1 134 1 view -0
  31              		.cfi_startproc
  32              		@ args = 0, pretend = 0, frame = 0
  33              		@ frame_needed = 0, uses_anonymous_args = 0
  34              		@ link register save eliminated.
 135:Middlewares/ST/BlueNRG-2/hci/bluenrg1_events_cb.c ****   /* NOTE : This function Should not be modified, when needed,
 136:Middlewares/ST/BlueNRG-2/hci/bluenrg1_events_cb.c ****             the callback could be implemented in the user file
 137:Middlewares/ST/BlueNRG-2/hci/bluenrg1_events_cb.c ****    */
 138:Middlewares/ST/BlueNRG-2/hci/bluenrg1_events_cb.c ****   BLUENRG_PRINTF("hci_disconnection_complete_event\r\n");
ARM GAS  C:\Users\zafee\AppData\Local\Temp\ccvOQAyH.s 			page 4


  35              		.loc 1 138 57 view .LVU1
 139:Middlewares/ST/BlueNRG-2/hci/bluenrg1_events_cb.c ****             
 140:Middlewares/ST/BlueNRG-2/hci/bluenrg1_events_cb.c **** }
  36              		.loc 1 140 1 is_stmt 0 view .LVU2
  37 0000 7047     		bx	lr
  38              		.cfi_endproc
  39              	.LFE130:
  41              		.section	.text.hci_encryption_change_event,"ax",%progbits
  42              		.align	1
  43              		.weak	hci_encryption_change_event
  44              		.syntax unified
  45              		.thumb
  46              		.thumb_func
  48              	hci_encryption_change_event:
  49              	.LVL1:
  50              	.LFB131:
 141:Middlewares/ST/BlueNRG-2/hci/bluenrg1_events_cb.c **** /**
 142:Middlewares/ST/BlueNRG-2/hci/bluenrg1_events_cb.c ****   * @brief The Encryption Change event is used to indicate that the change of the encryption
 143:Middlewares/ST/BlueNRG-2/hci/bluenrg1_events_cb.c **** mode has been completed. The Connection_Handle will be a Connection_Handle
 144:Middlewares/ST/BlueNRG-2/hci/bluenrg1_events_cb.c **** for an ACL connection. The Encryption_Enabled event parameter
 145:Middlewares/ST/BlueNRG-2/hci/bluenrg1_events_cb.c **** specifies the new Encryption_Enabled parameter for the Connection_Handle
 146:Middlewares/ST/BlueNRG-2/hci/bluenrg1_events_cb.c **** specified by the Connection_Handle event parameter. This event will occur on
 147:Middlewares/ST/BlueNRG-2/hci/bluenrg1_events_cb.c **** both devices to notify the Hosts when Encryption has changed for the specified
 148:Middlewares/ST/BlueNRG-2/hci/bluenrg1_events_cb.c **** Connection_Handle between two devices. Note: This event shall not be generated
 149:Middlewares/ST/BlueNRG-2/hci/bluenrg1_events_cb.c **** if encryption is paused or resumed; during a role switch, for example.
 150:Middlewares/ST/BlueNRG-2/hci/bluenrg1_events_cb.c **** The meaning of the Encryption_Enabled parameter depends on whether the
 151:Middlewares/ST/BlueNRG-2/hci/bluenrg1_events_cb.c **** Host has indicated support for Secure Connections in the Secure_Connections_Host_Support
 152:Middlewares/ST/BlueNRG-2/hci/bluenrg1_events_cb.c **** parameter. When Secure_Connections_Host_Support is
 153:Middlewares/ST/BlueNRG-2/hci/bluenrg1_events_cb.c **** 'disabled' or the Connection_Handle refers to an LE link, the Controller shall
 154:Middlewares/ST/BlueNRG-2/hci/bluenrg1_events_cb.c **** only use Encryption_Enabled values 0x00 (OFF) and 0x01 (ON).
 155:Middlewares/ST/BlueNRG-2/hci/bluenrg1_events_cb.c **** (See Bluetooth Specification v.4.1, Vol. 2, Part E, 7.7.8)
 156:Middlewares/ST/BlueNRG-2/hci/bluenrg1_events_cb.c ****   * @param Status For standard error codes see Bluetooth specification, Vol. 2, part D. For proprie
 157:Middlewares/ST/BlueNRG-2/hci/bluenrg1_events_cb.c ****   * @param Connection_Handle Connection handle for which the command is given.
 158:Middlewares/ST/BlueNRG-2/hci/bluenrg1_events_cb.c ****   * Values:
 159:Middlewares/ST/BlueNRG-2/hci/bluenrg1_events_cb.c ****   - 0x0000 ... 0x0EFF
 160:Middlewares/ST/BlueNRG-2/hci/bluenrg1_events_cb.c ****   * @param Encryption_Enabled Link Level Encryption.
 161:Middlewares/ST/BlueNRG-2/hci/bluenrg1_events_cb.c ****   * Values:
 162:Middlewares/ST/BlueNRG-2/hci/bluenrg1_events_cb.c ****   - 0x00: Link Level Encryption OFF
 163:Middlewares/ST/BlueNRG-2/hci/bluenrg1_events_cb.c ****   - 0x01: Link Level Encryption is ON with AES-CCM
 164:Middlewares/ST/BlueNRG-2/hci/bluenrg1_events_cb.c ****   * @retval None
 165:Middlewares/ST/BlueNRG-2/hci/bluenrg1_events_cb.c **** */
 166:Middlewares/ST/BlueNRG-2/hci/bluenrg1_events_cb.c **** WEAK_FUNCTION(void hci_encryption_change_event(uint8_t Status,
 167:Middlewares/ST/BlueNRG-2/hci/bluenrg1_events_cb.c ****                                  uint16_t Connection_Handle,
 168:Middlewares/ST/BlueNRG-2/hci/bluenrg1_events_cb.c ****                                  uint8_t Encryption_Enabled))
 169:Middlewares/ST/BlueNRG-2/hci/bluenrg1_events_cb.c **** {
  51              		.loc 1 169 1 is_stmt 1 view -0
  52              		.cfi_startproc
  53              		@ args = 0, pretend = 0, frame = 0
  54              		@ frame_needed = 0, uses_anonymous_args = 0
  55              		@ link register save eliminated.
 170:Middlewares/ST/BlueNRG-2/hci/bluenrg1_events_cb.c ****   /* NOTE : This function Should not be modified, when needed,
 171:Middlewares/ST/BlueNRG-2/hci/bluenrg1_events_cb.c ****             the callback could be implemented in the user file
 172:Middlewares/ST/BlueNRG-2/hci/bluenrg1_events_cb.c ****    */
 173:Middlewares/ST/BlueNRG-2/hci/bluenrg1_events_cb.c ****   BLUENRG_PRINTF("hci_encryption_change_event\r\n");
  56              		.loc 1 173 52 view .LVU4
 174:Middlewares/ST/BlueNRG-2/hci/bluenrg1_events_cb.c **** }
  57              		.loc 1 174 1 is_stmt 0 view .LVU5
ARM GAS  C:\Users\zafee\AppData\Local\Temp\ccvOQAyH.s 			page 5


  58 0000 7047     		bx	lr
  59              		.cfi_endproc
  60              	.LFE131:
  62              		.section	.text.hci_read_remote_version_information_complete_event,"ax",%progbits
  63              		.align	1
  64              		.weak	hci_read_remote_version_information_complete_event
  65              		.syntax unified
  66              		.thumb
  67              		.thumb_func
  69              	hci_read_remote_version_information_complete_event:
  70              	.LVL2:
  71              	.LFB132:
 175:Middlewares/ST/BlueNRG-2/hci/bluenrg1_events_cb.c **** /**
 176:Middlewares/ST/BlueNRG-2/hci/bluenrg1_events_cb.c ****   * @brief The Read Remote Version Information Complete event is used to indicate the
 177:Middlewares/ST/BlueNRG-2/hci/bluenrg1_events_cb.c **** completion of the process obtaining the version information of the remote Controller
 178:Middlewares/ST/BlueNRG-2/hci/bluenrg1_events_cb.c **** specified by the Connection_Handle event parameter. The Connection_Handle
 179:Middlewares/ST/BlueNRG-2/hci/bluenrg1_events_cb.c **** shall be for an ACL connection.
 180:Middlewares/ST/BlueNRG-2/hci/bluenrg1_events_cb.c **** The Version event parameter defines the specification version of the LE Controller.
 181:Middlewares/ST/BlueNRG-2/hci/bluenrg1_events_cb.c **** The Manufacturer_Name event parameter indicates the manufacturer
 182:Middlewares/ST/BlueNRG-2/hci/bluenrg1_events_cb.c **** of the remote Controller. The Subversion event parameter is controlled
 183:Middlewares/ST/BlueNRG-2/hci/bluenrg1_events_cb.c **** by the manufacturer and is implementation dependent. The Subversion
 184:Middlewares/ST/BlueNRG-2/hci/bluenrg1_events_cb.c **** event parameter defines the various revisions that each version of the Bluetooth
 185:Middlewares/ST/BlueNRG-2/hci/bluenrg1_events_cb.c **** hardware will go through as design processes change and errors are
 186:Middlewares/ST/BlueNRG-2/hci/bluenrg1_events_cb.c **** fixed. This allows the software to determine what Bluetooth hardware is being
 187:Middlewares/ST/BlueNRG-2/hci/bluenrg1_events_cb.c **** used and, if necessary, to work around various bugs in the hardware.
 188:Middlewares/ST/BlueNRG-2/hci/bluenrg1_events_cb.c **** When the Connection_Handle is associated with an LE-U logical link, the Version
 189:Middlewares/ST/BlueNRG-2/hci/bluenrg1_events_cb.c **** event parameter shall be Link Layer VersNr parameter, the Manufacturer_Name
 190:Middlewares/ST/BlueNRG-2/hci/bluenrg1_events_cb.c **** event parameter shall be the CompId parameter, and the Subversion
 191:Middlewares/ST/BlueNRG-2/hci/bluenrg1_events_cb.c **** event parameter shall be the SubVersNr parameter.
 192:Middlewares/ST/BlueNRG-2/hci/bluenrg1_events_cb.c **** (See Bluetooth Specification v.4.1, Vol. 2, Part E, 7.7.12)
 193:Middlewares/ST/BlueNRG-2/hci/bluenrg1_events_cb.c ****   * @param Status For standard error codes see Bluetooth specification, Vol. 2, part D. For proprie
 194:Middlewares/ST/BlueNRG-2/hci/bluenrg1_events_cb.c ****   * @param Connection_Handle Connection handle for which the command is given.
 195:Middlewares/ST/BlueNRG-2/hci/bluenrg1_events_cb.c ****   * Values:
 196:Middlewares/ST/BlueNRG-2/hci/bluenrg1_events_cb.c ****   - 0x0000 ... 0x0EFF
 197:Middlewares/ST/BlueNRG-2/hci/bluenrg1_events_cb.c ****   * @param Version Version of the Current LMP in the remote Controller
 198:Middlewares/ST/BlueNRG-2/hci/bluenrg1_events_cb.c ****   * @param Manufacturer_Name Manufacturer Name of the remote Controller
 199:Middlewares/ST/BlueNRG-2/hci/bluenrg1_events_cb.c ****   * @param Subversion Subversion of the LMP in the remote Controller
 200:Middlewares/ST/BlueNRG-2/hci/bluenrg1_events_cb.c ****   * @retval None
 201:Middlewares/ST/BlueNRG-2/hci/bluenrg1_events_cb.c **** */
 202:Middlewares/ST/BlueNRG-2/hci/bluenrg1_events_cb.c **** WEAK_FUNCTION(void hci_read_remote_version_information_complete_event(uint8_t Status,
 203:Middlewares/ST/BlueNRG-2/hci/bluenrg1_events_cb.c ****                                                         uint16_t Connection_Handle,
 204:Middlewares/ST/BlueNRG-2/hci/bluenrg1_events_cb.c ****                                                         uint8_t Version,
 205:Middlewares/ST/BlueNRG-2/hci/bluenrg1_events_cb.c ****                                                         uint16_t Manufacturer_Name,
 206:Middlewares/ST/BlueNRG-2/hci/bluenrg1_events_cb.c ****                                                         uint16_t Subversion))
 207:Middlewares/ST/BlueNRG-2/hci/bluenrg1_events_cb.c **** {
  72              		.loc 1 207 1 is_stmt 1 view -0
  73              		.cfi_startproc
  74              		@ args = 4, pretend = 0, frame = 0
  75              		@ frame_needed = 0, uses_anonymous_args = 0
  76              		@ link register save eliminated.
 208:Middlewares/ST/BlueNRG-2/hci/bluenrg1_events_cb.c ****   /* NOTE : This function Should not be modified, when needed,
 209:Middlewares/ST/BlueNRG-2/hci/bluenrg1_events_cb.c ****             the callback could be implemented in the user file
 210:Middlewares/ST/BlueNRG-2/hci/bluenrg1_events_cb.c ****    */
 211:Middlewares/ST/BlueNRG-2/hci/bluenrg1_events_cb.c ****   BLUENRG_PRINTF("hci_read_remote_version_information_complete_event\r\n");
  77              		.loc 1 211 75 view .LVU7
 212:Middlewares/ST/BlueNRG-2/hci/bluenrg1_events_cb.c **** }
  78              		.loc 1 212 1 is_stmt 0 view .LVU8
ARM GAS  C:\Users\zafee\AppData\Local\Temp\ccvOQAyH.s 			page 6


  79 0000 7047     		bx	lr
  80              		.cfi_endproc
  81              	.LFE132:
  83              		.section	.text.hci_hardware_error_event,"ax",%progbits
  84              		.align	1
  85              		.weak	hci_hardware_error_event
  86              		.syntax unified
  87              		.thumb
  88              		.thumb_func
  90              	hci_hardware_error_event:
  91              	.LVL3:
  92              	.LFB133:
 213:Middlewares/ST/BlueNRG-2/hci/bluenrg1_events_cb.c **** /**
 214:Middlewares/ST/BlueNRG-2/hci/bluenrg1_events_cb.c ****   * @brief The Hardware Error event is used to indicate some implementation specific type of hardwa
 215:Middlewares/ST/BlueNRG-2/hci/bluenrg1_events_cb.c ****   * @param Hardware_Code Hardware Error Event code.
 216:Middlewares/ST/BlueNRG-2/hci/bluenrg1_events_cb.c **** Error code 0x01 and 0x02 are errors generally caused by hardware issue on the PCB; another possible
 217:Middlewares/ST/BlueNRG-2/hci/bluenrg1_events_cb.c **** In the latter case, the HS_STARTUP_TIME in the device configuration needs to be tuned.
 218:Middlewares/ST/BlueNRG-2/hci/bluenrg1_events_cb.c **** Error code 0x03 indicates an internal error of the protocol stack.
 219:Middlewares/ST/BlueNRG-2/hci/bluenrg1_events_cb.c **** After this event is recommended to force device reset.
 220:Middlewares/ST/BlueNRG-2/hci/bluenrg1_events_cb.c ****   * Values:
 221:Middlewares/ST/BlueNRG-2/hci/bluenrg1_events_cb.c ****   - 0x01: Radio state error
 222:Middlewares/ST/BlueNRG-2/hci/bluenrg1_events_cb.c ****   - 0x02: Timer overrun error
 223:Middlewares/ST/BlueNRG-2/hci/bluenrg1_events_cb.c ****   - 0x03: Internal queue overflow error
 224:Middlewares/ST/BlueNRG-2/hci/bluenrg1_events_cb.c ****   * @retval None
 225:Middlewares/ST/BlueNRG-2/hci/bluenrg1_events_cb.c **** */
 226:Middlewares/ST/BlueNRG-2/hci/bluenrg1_events_cb.c **** WEAK_FUNCTION(void hci_hardware_error_event(uint8_t Hardware_Code))
 227:Middlewares/ST/BlueNRG-2/hci/bluenrg1_events_cb.c **** {
  93              		.loc 1 227 1 is_stmt 1 view -0
  94              		.cfi_startproc
  95              		@ args = 0, pretend = 0, frame = 0
  96              		@ frame_needed = 0, uses_anonymous_args = 0
  97              		@ link register save eliminated.
 228:Middlewares/ST/BlueNRG-2/hci/bluenrg1_events_cb.c ****   /* NOTE : This function Should not be modified, when needed,
 229:Middlewares/ST/BlueNRG-2/hci/bluenrg1_events_cb.c ****             the callback could be implemented in the user file
 230:Middlewares/ST/BlueNRG-2/hci/bluenrg1_events_cb.c ****    */
 231:Middlewares/ST/BlueNRG-2/hci/bluenrg1_events_cb.c ****   BLUENRG_PRINTF("hci_hardware_error_event\r\n");
  98              		.loc 1 231 49 view .LVU10
 232:Middlewares/ST/BlueNRG-2/hci/bluenrg1_events_cb.c **** }
  99              		.loc 1 232 1 is_stmt 0 view .LVU11
 100 0000 7047     		bx	lr
 101              		.cfi_endproc
 102              	.LFE133:
 104              		.section	.text.hci_number_of_completed_packets_event,"ax",%progbits
 105              		.align	1
 106              		.weak	hci_number_of_completed_packets_event
 107              		.syntax unified
 108              		.thumb
 109              		.thumb_func
 111              	hci_number_of_completed_packets_event:
 112              	.LVL4:
 113              	.LFB134:
 233:Middlewares/ST/BlueNRG-2/hci/bluenrg1_events_cb.c **** /**
 234:Middlewares/ST/BlueNRG-2/hci/bluenrg1_events_cb.c ****   * @brief 'The Number Of Completed Packets event is used by the Controller to indicate
 235:Middlewares/ST/BlueNRG-2/hci/bluenrg1_events_cb.c **** to the Host how many HCI Data Packets have been completed (transmitted or
 236:Middlewares/ST/BlueNRG-2/hci/bluenrg1_events_cb.c **** flushed) for each Connection_Handle since the previous Number Of Completed
 237:Middlewares/ST/BlueNRG-2/hci/bluenrg1_events_cb.c **** Packets event was sent to the Host. This means that the corresponding
 238:Middlewares/ST/BlueNRG-2/hci/bluenrg1_events_cb.c **** buffer space has been freed in the Controller. Based on this information, and
ARM GAS  C:\Users\zafee\AppData\Local\Temp\ccvOQAyH.s 			page 7


 239:Middlewares/ST/BlueNRG-2/hci/bluenrg1_events_cb.c **** the HC_Total_Num_ACL_Data_Packets and HC_Total_Num_Synchronous_-
 240:Middlewares/ST/BlueNRG-2/hci/bluenrg1_events_cb.c **** Data_Packets return parameter of the Read_Buffer_Size command, the Host
 241:Middlewares/ST/BlueNRG-2/hci/bluenrg1_events_cb.c **** can determine for which Connection_Handles the following HCI Data Packets
 242:Middlewares/ST/BlueNRG-2/hci/bluenrg1_events_cb.c **** should be sent to the Controller. The Number Of Completed Packets event
 243:Middlewares/ST/BlueNRG-2/hci/bluenrg1_events_cb.c **** must not be sent before the corresponding Connection Complete event. While
 244:Middlewares/ST/BlueNRG-2/hci/bluenrg1_events_cb.c **** the Controller has HCI data packets in its buffer, it must keep sending the Number
 245:Middlewares/ST/BlueNRG-2/hci/bluenrg1_events_cb.c **** Of Completed Packets event to the Host at least periodically, until it finally
 246:Middlewares/ST/BlueNRG-2/hci/bluenrg1_events_cb.c **** reports that all the pending ACL Data Packets have been transmitted or
 247:Middlewares/ST/BlueNRG-2/hci/bluenrg1_events_cb.c **** flushed.
 248:Middlewares/ST/BlueNRG-2/hci/bluenrg1_events_cb.c ****   * @param Number_of_Handles The number of Connection_Handles and Num_HCI_Data_Packets parameters p
 249:Middlewares/ST/BlueNRG-2/hci/bluenrg1_events_cb.c ****   * @param Handle_Packets_Pair_Entry See @ref Handle_Packets_Pair_Entry_t
 250:Middlewares/ST/BlueNRG-2/hci/bluenrg1_events_cb.c ****   * @retval None
 251:Middlewares/ST/BlueNRG-2/hci/bluenrg1_events_cb.c **** */
 252:Middlewares/ST/BlueNRG-2/hci/bluenrg1_events_cb.c **** WEAK_FUNCTION(void hci_number_of_completed_packets_event(uint8_t Number_of_Handles,
 253:Middlewares/ST/BlueNRG-2/hci/bluenrg1_events_cb.c ****                                            Handle_Packets_Pair_Entry_t Handle_Packets_Pair_Entry[])
 254:Middlewares/ST/BlueNRG-2/hci/bluenrg1_events_cb.c **** {
 114              		.loc 1 254 1 is_stmt 1 view -0
 115              		.cfi_startproc
 116              		@ args = 0, pretend = 0, frame = 0
 117              		@ frame_needed = 0, uses_anonymous_args = 0
 118              		@ link register save eliminated.
 255:Middlewares/ST/BlueNRG-2/hci/bluenrg1_events_cb.c ****   /* NOTE : This function Should not be modified, when needed,
 256:Middlewares/ST/BlueNRG-2/hci/bluenrg1_events_cb.c ****             the callback could be implemented in the user file
 257:Middlewares/ST/BlueNRG-2/hci/bluenrg1_events_cb.c ****    */
 258:Middlewares/ST/BlueNRG-2/hci/bluenrg1_events_cb.c ****   BLUENRG_PRINTF("hci_number_of_completed_packets_event\r\n");
 119              		.loc 1 258 62 view .LVU13
 259:Middlewares/ST/BlueNRG-2/hci/bluenrg1_events_cb.c **** }
 120              		.loc 1 259 1 is_stmt 0 view .LVU14
 121 0000 7047     		bx	lr
 122              		.cfi_endproc
 123              	.LFE134:
 125              		.section	.text.hci_data_buffer_overflow_event,"ax",%progbits
 126              		.align	1
 127              		.weak	hci_data_buffer_overflow_event
 128              		.syntax unified
 129              		.thumb
 130              		.thumb_func
 132              	hci_data_buffer_overflow_event:
 133              	.LVL5:
 134              	.LFB135:
 260:Middlewares/ST/BlueNRG-2/hci/bluenrg1_events_cb.c **** /**
 261:Middlewares/ST/BlueNRG-2/hci/bluenrg1_events_cb.c ****   * @brief 'This event is used to indicate that the Controller's data buffers have been overflowed.
 262:Middlewares/ST/BlueNRG-2/hci/bluenrg1_events_cb.c **** This can occur if the Host has sent more packets than allowed. The
 263:Middlewares/ST/BlueNRG-2/hci/bluenrg1_events_cb.c **** Link_Type parameter is used to indicate that the overflow was caused by ACL data.
 264:Middlewares/ST/BlueNRG-2/hci/bluenrg1_events_cb.c ****   * @param Link_Type On wich type of channel overflow has occurred.
 265:Middlewares/ST/BlueNRG-2/hci/bluenrg1_events_cb.c ****   * Values:
 266:Middlewares/ST/BlueNRG-2/hci/bluenrg1_events_cb.c ****   - 0x01: ACL Buffer Overflow
 267:Middlewares/ST/BlueNRG-2/hci/bluenrg1_events_cb.c ****   * @retval None
 268:Middlewares/ST/BlueNRG-2/hci/bluenrg1_events_cb.c **** */
 269:Middlewares/ST/BlueNRG-2/hci/bluenrg1_events_cb.c **** WEAK_FUNCTION(void hci_data_buffer_overflow_event(uint8_t Link_Type))
 270:Middlewares/ST/BlueNRG-2/hci/bluenrg1_events_cb.c **** {
 135              		.loc 1 270 1 is_stmt 1 view -0
 136              		.cfi_startproc
 137              		@ args = 0, pretend = 0, frame = 0
 138              		@ frame_needed = 0, uses_anonymous_args = 0
 139              		@ link register save eliminated.
 271:Middlewares/ST/BlueNRG-2/hci/bluenrg1_events_cb.c ****   /* NOTE : This function Should not be modified, when needed,
ARM GAS  C:\Users\zafee\AppData\Local\Temp\ccvOQAyH.s 			page 8


 272:Middlewares/ST/BlueNRG-2/hci/bluenrg1_events_cb.c ****             the callback could be implemented in the user file
 273:Middlewares/ST/BlueNRG-2/hci/bluenrg1_events_cb.c ****    */
 274:Middlewares/ST/BlueNRG-2/hci/bluenrg1_events_cb.c ****   BLUENRG_PRINTF("hci_data_buffer_overflow_event\r\n");
 140              		.loc 1 274 55 view .LVU16
 275:Middlewares/ST/BlueNRG-2/hci/bluenrg1_events_cb.c **** }
 141              		.loc 1 275 1 is_stmt 0 view .LVU17
 142 0000 7047     		bx	lr
 143              		.cfi_endproc
 144              	.LFE135:
 146              		.section	.text.hci_encryption_key_refresh_complete_event,"ax",%progbits
 147              		.align	1
 148              		.weak	hci_encryption_key_refresh_complete_event
 149              		.syntax unified
 150              		.thumb
 151              		.thumb_func
 153              	hci_encryption_key_refresh_complete_event:
 154              	.LVL6:
 155              	.LFB136:
 276:Middlewares/ST/BlueNRG-2/hci/bluenrg1_events_cb.c **** /**
 277:Middlewares/ST/BlueNRG-2/hci/bluenrg1_events_cb.c ****   * @brief 'The Encryption Key Refresh Complete event is used to indicate to the Host
 278:Middlewares/ST/BlueNRG-2/hci/bluenrg1_events_cb.c **** that the encryption key was refreshed on the given Connection_Handle any
 279:Middlewares/ST/BlueNRG-2/hci/bluenrg1_events_cb.c **** time encryption is paused and then resumed.
 280:Middlewares/ST/BlueNRG-2/hci/bluenrg1_events_cb.c **** If the Encryption Key Refresh Complete event was generated due to an
 281:Middlewares/ST/BlueNRG-2/hci/bluenrg1_events_cb.c **** encryption pause and resume operation embedded within a change connection
 282:Middlewares/ST/BlueNRG-2/hci/bluenrg1_events_cb.c **** link key procedure, the Encryption Key Refresh Complete event shall be sent
 283:Middlewares/ST/BlueNRG-2/hci/bluenrg1_events_cb.c **** prior to the Change Connection Link Key Complete event.
 284:Middlewares/ST/BlueNRG-2/hci/bluenrg1_events_cb.c **** If the Encryption Key Refresh Complete event was generated due to an
 285:Middlewares/ST/BlueNRG-2/hci/bluenrg1_events_cb.c **** encryption pause and resume operation embedded within a role switch procedure,
 286:Middlewares/ST/BlueNRG-2/hci/bluenrg1_events_cb.c **** the Encryption Key Refresh Complete event shall be sent prior to the
 287:Middlewares/ST/BlueNRG-2/hci/bluenrg1_events_cb.c **** Role Change event.
 288:Middlewares/ST/BlueNRG-2/hci/bluenrg1_events_cb.c ****   * @param Status For standard error codes see Bluetooth specification, Vol. 2, part D. For proprie
 289:Middlewares/ST/BlueNRG-2/hci/bluenrg1_events_cb.c ****   * @param Connection_Handle Connection handle for which the command is given.
 290:Middlewares/ST/BlueNRG-2/hci/bluenrg1_events_cb.c ****   * Values:
 291:Middlewares/ST/BlueNRG-2/hci/bluenrg1_events_cb.c ****   - 0x0000 ... 0x0EFF
 292:Middlewares/ST/BlueNRG-2/hci/bluenrg1_events_cb.c ****   * @retval None
 293:Middlewares/ST/BlueNRG-2/hci/bluenrg1_events_cb.c **** */
 294:Middlewares/ST/BlueNRG-2/hci/bluenrg1_events_cb.c **** WEAK_FUNCTION(void hci_encryption_key_refresh_complete_event(uint8_t Status,
 295:Middlewares/ST/BlueNRG-2/hci/bluenrg1_events_cb.c ****                                                uint16_t Connection_Handle))
 296:Middlewares/ST/BlueNRG-2/hci/bluenrg1_events_cb.c **** {
 156              		.loc 1 296 1 is_stmt 1 view -0
 157              		.cfi_startproc
 158              		@ args = 0, pretend = 0, frame = 0
 159              		@ frame_needed = 0, uses_anonymous_args = 0
 160              		@ link register save eliminated.
 297:Middlewares/ST/BlueNRG-2/hci/bluenrg1_events_cb.c ****   /* NOTE : This function Should not be modified, when needed,
 298:Middlewares/ST/BlueNRG-2/hci/bluenrg1_events_cb.c ****             the callback could be implemented in the user file
 299:Middlewares/ST/BlueNRG-2/hci/bluenrg1_events_cb.c ****    */
 300:Middlewares/ST/BlueNRG-2/hci/bluenrg1_events_cb.c ****   BLUENRG_PRINTF("hci_encryption_key_refresh_complete_event\r\n");
 161              		.loc 1 300 66 view .LVU19
 301:Middlewares/ST/BlueNRG-2/hci/bluenrg1_events_cb.c **** }
 162              		.loc 1 301 1 is_stmt 0 view .LVU20
 163 0000 7047     		bx	lr
 164              		.cfi_endproc
 165              	.LFE136:
 167              		.section	.text.hci_le_connection_complete_event,"ax",%progbits
 168              		.align	1
 169              		.weak	hci_le_connection_complete_event
ARM GAS  C:\Users\zafee\AppData\Local\Temp\ccvOQAyH.s 			page 9


 170              		.syntax unified
 171              		.thumb
 172              		.thumb_func
 174              	hci_le_connection_complete_event:
 175              	.LVL7:
 176              	.LFB137:
 302:Middlewares/ST/BlueNRG-2/hci/bluenrg1_events_cb.c **** /**
 303:Middlewares/ST/BlueNRG-2/hci/bluenrg1_events_cb.c ****   * @brief The LE Connection Complete event indicates to both of the Hosts forming the
 304:Middlewares/ST/BlueNRG-2/hci/bluenrg1_events_cb.c **** connection that a new connection has been created. Upon the creation of the
 305:Middlewares/ST/BlueNRG-2/hci/bluenrg1_events_cb.c **** connection a Connection_Handle shall be assigned by the Controller, and
 306:Middlewares/ST/BlueNRG-2/hci/bluenrg1_events_cb.c **** passed to the Host in this event. If the connection establishment fails this event
 307:Middlewares/ST/BlueNRG-2/hci/bluenrg1_events_cb.c **** shall be provided to the Host that had issued the LE_Create_Connection command.
 308:Middlewares/ST/BlueNRG-2/hci/bluenrg1_events_cb.c **** This event indicates to the Host which issued a LE_Create_Connection
 309:Middlewares/ST/BlueNRG-2/hci/bluenrg1_events_cb.c **** command and received a Command Status event if the connection
 310:Middlewares/ST/BlueNRG-2/hci/bluenrg1_events_cb.c **** establishment failed or was successful.
 311:Middlewares/ST/BlueNRG-2/hci/bluenrg1_events_cb.c **** The Master_Clock_Accuracy parameter is only valid for a slave. On a master,
 312:Middlewares/ST/BlueNRG-2/hci/bluenrg1_events_cb.c **** this parameter shall be set to 0x00.
 313:Middlewares/ST/BlueNRG-2/hci/bluenrg1_events_cb.c ****   * @param Status For standard error codes see Bluetooth specification, Vol. 2, part D. For proprie
 314:Middlewares/ST/BlueNRG-2/hci/bluenrg1_events_cb.c ****   * @param Connection_Handle Connection handle to be used to identify the connection with the peer 
 315:Middlewares/ST/BlueNRG-2/hci/bluenrg1_events_cb.c ****   * Values:
 316:Middlewares/ST/BlueNRG-2/hci/bluenrg1_events_cb.c ****   - 0x0000 ... 0x0EFF
 317:Middlewares/ST/BlueNRG-2/hci/bluenrg1_events_cb.c ****   * @param Role Role of the local device in the connection.
 318:Middlewares/ST/BlueNRG-2/hci/bluenrg1_events_cb.c ****   * Values:
 319:Middlewares/ST/BlueNRG-2/hci/bluenrg1_events_cb.c ****   - 0x00: Master
 320:Middlewares/ST/BlueNRG-2/hci/bluenrg1_events_cb.c ****   - 0x01: Slave
 321:Middlewares/ST/BlueNRG-2/hci/bluenrg1_events_cb.c ****   * @param Peer_Address_Type The address type of the peer device.
 322:Middlewares/ST/BlueNRG-2/hci/bluenrg1_events_cb.c ****   * Values:
 323:Middlewares/ST/BlueNRG-2/hci/bluenrg1_events_cb.c ****   - 0x00: Public Device Address
 324:Middlewares/ST/BlueNRG-2/hci/bluenrg1_events_cb.c ****   - 0x01: Random Device Address
 325:Middlewares/ST/BlueNRG-2/hci/bluenrg1_events_cb.c ****   * @param Peer_Address Public Device Address or Random Device Address of the peer
 326:Middlewares/ST/BlueNRG-2/hci/bluenrg1_events_cb.c **** device
 327:Middlewares/ST/BlueNRG-2/hci/bluenrg1_events_cb.c ****   * @param Conn_Interval Connection interval used on this connection.
 328:Middlewares/ST/BlueNRG-2/hci/bluenrg1_events_cb.c **** Time = N * 1.25 msec
 329:Middlewares/ST/BlueNRG-2/hci/bluenrg1_events_cb.c ****   * Values:
 330:Middlewares/ST/BlueNRG-2/hci/bluenrg1_events_cb.c ****   - 0x0006 (7.50 ms)  ... 0x0C80 (4000.00 ms) 
 331:Middlewares/ST/BlueNRG-2/hci/bluenrg1_events_cb.c ****   * @param Conn_Latency Slave latency for the connection in number of connection events.
 332:Middlewares/ST/BlueNRG-2/hci/bluenrg1_events_cb.c ****   * Values:
 333:Middlewares/ST/BlueNRG-2/hci/bluenrg1_events_cb.c ****   - 0x0000 ... 0x01F3
 334:Middlewares/ST/BlueNRG-2/hci/bluenrg1_events_cb.c ****   * @param Supervision_Timeout Supervision timeout for the LE Link.
 335:Middlewares/ST/BlueNRG-2/hci/bluenrg1_events_cb.c **** It shall be a multiple of 10 ms and larger than (1 + connSlaveLatency) * connInterval * 2.
 336:Middlewares/ST/BlueNRG-2/hci/bluenrg1_events_cb.c **** Time = N * 10 msec.
 337:Middlewares/ST/BlueNRG-2/hci/bluenrg1_events_cb.c ****   * Values:
 338:Middlewares/ST/BlueNRG-2/hci/bluenrg1_events_cb.c ****   - 0x000A (100 ms)  ... 0x0C80 (32000 ms) 
 339:Middlewares/ST/BlueNRG-2/hci/bluenrg1_events_cb.c ****   * @param Master_Clock_Accuracy Master clock accuracy. Only valid for a slave.
 340:Middlewares/ST/BlueNRG-2/hci/bluenrg1_events_cb.c ****   * Values:
 341:Middlewares/ST/BlueNRG-2/hci/bluenrg1_events_cb.c ****   - 0x00: 500 ppm
 342:Middlewares/ST/BlueNRG-2/hci/bluenrg1_events_cb.c ****   - 0x01: 250 ppm
 343:Middlewares/ST/BlueNRG-2/hci/bluenrg1_events_cb.c ****   - 0x02: 150 ppm
 344:Middlewares/ST/BlueNRG-2/hci/bluenrg1_events_cb.c ****   - 0x03: 100 ppm
 345:Middlewares/ST/BlueNRG-2/hci/bluenrg1_events_cb.c ****   - 0x04: 75 ppm
 346:Middlewares/ST/BlueNRG-2/hci/bluenrg1_events_cb.c ****   - 0x05: 50 ppm
 347:Middlewares/ST/BlueNRG-2/hci/bluenrg1_events_cb.c ****   - 0x06: 30 ppm
 348:Middlewares/ST/BlueNRG-2/hci/bluenrg1_events_cb.c ****   - 0x07: 20 ppm
 349:Middlewares/ST/BlueNRG-2/hci/bluenrg1_events_cb.c ****   * @retval None
 350:Middlewares/ST/BlueNRG-2/hci/bluenrg1_events_cb.c **** */
 351:Middlewares/ST/BlueNRG-2/hci/bluenrg1_events_cb.c **** WEAK_FUNCTION(void hci_le_connection_complete_event(uint8_t Status,
 352:Middlewares/ST/BlueNRG-2/hci/bluenrg1_events_cb.c ****                                       uint16_t Connection_Handle,
ARM GAS  C:\Users\zafee\AppData\Local\Temp\ccvOQAyH.s 			page 10


 353:Middlewares/ST/BlueNRG-2/hci/bluenrg1_events_cb.c ****                                       uint8_t Role,
 354:Middlewares/ST/BlueNRG-2/hci/bluenrg1_events_cb.c ****                                       uint8_t Peer_Address_Type,
 355:Middlewares/ST/BlueNRG-2/hci/bluenrg1_events_cb.c ****                                       uint8_t Peer_Address[6],
 356:Middlewares/ST/BlueNRG-2/hci/bluenrg1_events_cb.c ****                                       uint16_t Conn_Interval,
 357:Middlewares/ST/BlueNRG-2/hci/bluenrg1_events_cb.c ****                                       uint16_t Conn_Latency,
 358:Middlewares/ST/BlueNRG-2/hci/bluenrg1_events_cb.c ****                                       uint16_t Supervision_Timeout,
 359:Middlewares/ST/BlueNRG-2/hci/bluenrg1_events_cb.c ****                                       uint8_t Master_Clock_Accuracy))
 360:Middlewares/ST/BlueNRG-2/hci/bluenrg1_events_cb.c **** {
 177              		.loc 1 360 1 is_stmt 1 view -0
 178              		.cfi_startproc
 179              		@ args = 20, pretend = 0, frame = 0
 180              		@ frame_needed = 0, uses_anonymous_args = 0
 181              		@ link register save eliminated.
 361:Middlewares/ST/BlueNRG-2/hci/bluenrg1_events_cb.c ****   /* NOTE : This function Should not be modified, when needed,
 362:Middlewares/ST/BlueNRG-2/hci/bluenrg1_events_cb.c ****             the callback could be implemented in the user file
 363:Middlewares/ST/BlueNRG-2/hci/bluenrg1_events_cb.c ****    */
 364:Middlewares/ST/BlueNRG-2/hci/bluenrg1_events_cb.c ****   BLUENRG_PRINTF("hci_le_connection_complete_event\r\n");
 182              		.loc 1 364 57 view .LVU22
 365:Middlewares/ST/BlueNRG-2/hci/bluenrg1_events_cb.c **** }
 183              		.loc 1 365 1 is_stmt 0 view .LVU23
 184 0000 7047     		bx	lr
 185              		.cfi_endproc
 186              	.LFE137:
 188              		.section	.text.hci_le_advertising_report_event,"ax",%progbits
 189              		.align	1
 190              		.weak	hci_le_advertising_report_event
 191              		.syntax unified
 192              		.thumb
 193              		.thumb_func
 195              	hci_le_advertising_report_event:
 196              	.LVL8:
 197              	.LFB138:
 366:Middlewares/ST/BlueNRG-2/hci/bluenrg1_events_cb.c **** /**
 367:Middlewares/ST/BlueNRG-2/hci/bluenrg1_events_cb.c ****   * @brief The LE Advertising Report event indicates that a Bluetooth device or multiple
 368:Middlewares/ST/BlueNRG-2/hci/bluenrg1_events_cb.c **** Bluetooth devices have responded to an active scan or received some information
 369:Middlewares/ST/BlueNRG-2/hci/bluenrg1_events_cb.c **** during a passive scan. The Controller may queue these advertising reports
 370:Middlewares/ST/BlueNRG-2/hci/bluenrg1_events_cb.c **** and send information from multiple devices in one LE Advertising Report event.
 371:Middlewares/ST/BlueNRG-2/hci/bluenrg1_events_cb.c ****   * @param Num_Reports Number of responses in this event.
 372:Middlewares/ST/BlueNRG-2/hci/bluenrg1_events_cb.c ****   * Values:
 373:Middlewares/ST/BlueNRG-2/hci/bluenrg1_events_cb.c ****   - 0x01
 374:Middlewares/ST/BlueNRG-2/hci/bluenrg1_events_cb.c ****   * @param Advertising_Report See @ref Advertising_Report_t
 375:Middlewares/ST/BlueNRG-2/hci/bluenrg1_events_cb.c ****   * @retval None
 376:Middlewares/ST/BlueNRG-2/hci/bluenrg1_events_cb.c **** */
 377:Middlewares/ST/BlueNRG-2/hci/bluenrg1_events_cb.c **** WEAK_FUNCTION(void hci_le_advertising_report_event(uint8_t Num_Reports,
 378:Middlewares/ST/BlueNRG-2/hci/bluenrg1_events_cb.c ****                                      Advertising_Report_t Advertising_Report[]))
 379:Middlewares/ST/BlueNRG-2/hci/bluenrg1_events_cb.c **** {
 198              		.loc 1 379 1 is_stmt 1 view -0
 199              		.cfi_startproc
 200              		@ args = 0, pretend = 0, frame = 0
 201              		@ frame_needed = 0, uses_anonymous_args = 0
 202              		@ link register save eliminated.
 380:Middlewares/ST/BlueNRG-2/hci/bluenrg1_events_cb.c ****   /* NOTE : This function Should not be modified, when needed,
 381:Middlewares/ST/BlueNRG-2/hci/bluenrg1_events_cb.c ****             the callback could be implemented in the user file
 382:Middlewares/ST/BlueNRG-2/hci/bluenrg1_events_cb.c ****    */
 383:Middlewares/ST/BlueNRG-2/hci/bluenrg1_events_cb.c ****   BLUENRG_PRINTF("hci_le_advertising_report_event\r\n");
 203              		.loc 1 383 56 view .LVU25
 384:Middlewares/ST/BlueNRG-2/hci/bluenrg1_events_cb.c **** }
ARM GAS  C:\Users\zafee\AppData\Local\Temp\ccvOQAyH.s 			page 11


 204              		.loc 1 384 1 is_stmt 0 view .LVU26
 205 0000 7047     		bx	lr
 206              		.cfi_endproc
 207              	.LFE138:
 209              		.section	.text.hci_le_connection_update_complete_event,"ax",%progbits
 210              		.align	1
 211              		.weak	hci_le_connection_update_complete_event
 212              		.syntax unified
 213              		.thumb
 214              		.thumb_func
 216              	hci_le_connection_update_complete_event:
 217              	.LVL9:
 218              	.LFB139:
 385:Middlewares/ST/BlueNRG-2/hci/bluenrg1_events_cb.c **** /**
 386:Middlewares/ST/BlueNRG-2/hci/bluenrg1_events_cb.c ****   * @brief The LE Connection Update Complete event is used to indicate that the Controller
 387:Middlewares/ST/BlueNRG-2/hci/bluenrg1_events_cb.c **** process to update the connection has completed.
 388:Middlewares/ST/BlueNRG-2/hci/bluenrg1_events_cb.c **** On a slave, if no connection parameters are updated, then this event shall not be issued.
 389:Middlewares/ST/BlueNRG-2/hci/bluenrg1_events_cb.c **** On a master, this event shall be issued if the Connection_Update command was sent.
 390:Middlewares/ST/BlueNRG-2/hci/bluenrg1_events_cb.c ****   * @param Status For standard error codes see Bluetooth specification, Vol. 2, part D. For proprie
 391:Middlewares/ST/BlueNRG-2/hci/bluenrg1_events_cb.c ****   * @param Connection_Handle Connection handle to be used to identify the connection with the peer 
 392:Middlewares/ST/BlueNRG-2/hci/bluenrg1_events_cb.c ****   * Values:
 393:Middlewares/ST/BlueNRG-2/hci/bluenrg1_events_cb.c ****   - 0x0000 ... 0x0EFF
 394:Middlewares/ST/BlueNRG-2/hci/bluenrg1_events_cb.c ****   * @param Conn_Interval Connection interval used on this connection.
 395:Middlewares/ST/BlueNRG-2/hci/bluenrg1_events_cb.c **** Time = N * 1.25 msec
 396:Middlewares/ST/BlueNRG-2/hci/bluenrg1_events_cb.c ****   * Values:
 397:Middlewares/ST/BlueNRG-2/hci/bluenrg1_events_cb.c ****   - 0x0006 (7.50 ms)  ... 0x0C80 (4000.00 ms) 
 398:Middlewares/ST/BlueNRG-2/hci/bluenrg1_events_cb.c ****   * @param Conn_Latency Slave latency for the connection in number of connection events.
 399:Middlewares/ST/BlueNRG-2/hci/bluenrg1_events_cb.c ****   * Values:
 400:Middlewares/ST/BlueNRG-2/hci/bluenrg1_events_cb.c ****   - 0x0000 ... 0x01F3
 401:Middlewares/ST/BlueNRG-2/hci/bluenrg1_events_cb.c ****   * @param Supervision_Timeout Supervision timeout for the LE Link.
 402:Middlewares/ST/BlueNRG-2/hci/bluenrg1_events_cb.c **** It shall be a multiple of 10 ms and larger than (1 + connSlaveLatency) * connInterval * 2.
 403:Middlewares/ST/BlueNRG-2/hci/bluenrg1_events_cb.c **** Time = N * 10 msec.
 404:Middlewares/ST/BlueNRG-2/hci/bluenrg1_events_cb.c ****   * Values:
 405:Middlewares/ST/BlueNRG-2/hci/bluenrg1_events_cb.c ****   - 0x000A (100 ms)  ... 0x0C80 (32000 ms) 
 406:Middlewares/ST/BlueNRG-2/hci/bluenrg1_events_cb.c ****   * @retval None
 407:Middlewares/ST/BlueNRG-2/hci/bluenrg1_events_cb.c **** */
 408:Middlewares/ST/BlueNRG-2/hci/bluenrg1_events_cb.c **** WEAK_FUNCTION(void hci_le_connection_update_complete_event(uint8_t Status,
 409:Middlewares/ST/BlueNRG-2/hci/bluenrg1_events_cb.c ****                                              uint16_t Connection_Handle,
 410:Middlewares/ST/BlueNRG-2/hci/bluenrg1_events_cb.c ****                                              uint16_t Conn_Interval,
 411:Middlewares/ST/BlueNRG-2/hci/bluenrg1_events_cb.c ****                                              uint16_t Conn_Latency,
 412:Middlewares/ST/BlueNRG-2/hci/bluenrg1_events_cb.c ****                                              uint16_t Supervision_Timeout))
 413:Middlewares/ST/BlueNRG-2/hci/bluenrg1_events_cb.c **** {
 219              		.loc 1 413 1 is_stmt 1 view -0
 220              		.cfi_startproc
 221              		@ args = 4, pretend = 0, frame = 0
 222              		@ frame_needed = 0, uses_anonymous_args = 0
 223              		@ link register save eliminated.
 414:Middlewares/ST/BlueNRG-2/hci/bluenrg1_events_cb.c ****   /* NOTE : This function Should not be modified, when needed,
 415:Middlewares/ST/BlueNRG-2/hci/bluenrg1_events_cb.c ****             the callback could be implemented in the user file
 416:Middlewares/ST/BlueNRG-2/hci/bluenrg1_events_cb.c ****    */
 417:Middlewares/ST/BlueNRG-2/hci/bluenrg1_events_cb.c ****   BLUENRG_PRINTF("hci_le_connection_update_complete_event\r\n");
 224              		.loc 1 417 64 view .LVU28
 418:Middlewares/ST/BlueNRG-2/hci/bluenrg1_events_cb.c **** }
 225              		.loc 1 418 1 is_stmt 0 view .LVU29
 226 0000 7047     		bx	lr
 227              		.cfi_endproc
 228              	.LFE139:
ARM GAS  C:\Users\zafee\AppData\Local\Temp\ccvOQAyH.s 			page 12


 230              		.section	.text.hci_le_read_remote_used_features_complete_event,"ax",%progbits
 231              		.align	1
 232              		.weak	hci_le_read_remote_used_features_complete_event
 233              		.syntax unified
 234              		.thumb
 235              		.thumb_func
 237              	hci_le_read_remote_used_features_complete_event:
 238              	.LVL10:
 239              	.LFB140:
 419:Middlewares/ST/BlueNRG-2/hci/bluenrg1_events_cb.c **** /**
 420:Middlewares/ST/BlueNRG-2/hci/bluenrg1_events_cb.c ****   * @brief The LE Read Remote Used Features Complete event is used to indicate the
 421:Middlewares/ST/BlueNRG-2/hci/bluenrg1_events_cb.c **** completion of the process of the Controller obtaining the used features of the
 422:Middlewares/ST/BlueNRG-2/hci/bluenrg1_events_cb.c **** remote Bluetooth device specified by the Connection_Handle event parameter.
 423:Middlewares/ST/BlueNRG-2/hci/bluenrg1_events_cb.c ****   * @param Status For standard error codes see Bluetooth specification, Vol. 2, part D. For proprie
 424:Middlewares/ST/BlueNRG-2/hci/bluenrg1_events_cb.c ****   * @param Connection_Handle Connection handle to be used to identify the connection with the peer 
 425:Middlewares/ST/BlueNRG-2/hci/bluenrg1_events_cb.c ****   * Values:
 426:Middlewares/ST/BlueNRG-2/hci/bluenrg1_events_cb.c ****   - 0x0000 ... 0x0EFF
 427:Middlewares/ST/BlueNRG-2/hci/bluenrg1_events_cb.c ****   * @param LE_Features Bit Mask List of used LE features. For details see LE Link Layer specificati
 428:Middlewares/ST/BlueNRG-2/hci/bluenrg1_events_cb.c ****   * @retval None
 429:Middlewares/ST/BlueNRG-2/hci/bluenrg1_events_cb.c **** */
 430:Middlewares/ST/BlueNRG-2/hci/bluenrg1_events_cb.c **** WEAK_FUNCTION(void hci_le_read_remote_used_features_complete_event(uint8_t Status,
 431:Middlewares/ST/BlueNRG-2/hci/bluenrg1_events_cb.c ****                                                      uint16_t Connection_Handle,
 432:Middlewares/ST/BlueNRG-2/hci/bluenrg1_events_cb.c ****                                                      uint8_t LE_Features[8]))
 433:Middlewares/ST/BlueNRG-2/hci/bluenrg1_events_cb.c **** {
 240              		.loc 1 433 1 is_stmt 1 view -0
 241              		.cfi_startproc
 242              		@ args = 0, pretend = 0, frame = 0
 243              		@ frame_needed = 0, uses_anonymous_args = 0
 244              		@ link register save eliminated.
 434:Middlewares/ST/BlueNRG-2/hci/bluenrg1_events_cb.c ****   /* NOTE : This function Should not be modified, when needed,
 435:Middlewares/ST/BlueNRG-2/hci/bluenrg1_events_cb.c ****             the callback could be implemented in the user file
 436:Middlewares/ST/BlueNRG-2/hci/bluenrg1_events_cb.c ****    */
 437:Middlewares/ST/BlueNRG-2/hci/bluenrg1_events_cb.c ****   BLUENRG_PRINTF("hci_le_read_remote_used_features_complete_event\r\n");
 245              		.loc 1 437 72 view .LVU31
 438:Middlewares/ST/BlueNRG-2/hci/bluenrg1_events_cb.c **** }
 246              		.loc 1 438 1 is_stmt 0 view .LVU32
 247 0000 7047     		bx	lr
 248              		.cfi_endproc
 249              	.LFE140:
 251              		.section	.text.hci_le_long_term_key_request_event,"ax",%progbits
 252              		.align	1
 253              		.weak	hci_le_long_term_key_request_event
 254              		.syntax unified
 255              		.thumb
 256              		.thumb_func
 258              	hci_le_long_term_key_request_event:
 259              	.LVL11:
 260              	.LFB141:
 439:Middlewares/ST/BlueNRG-2/hci/bluenrg1_events_cb.c **** /**
 440:Middlewares/ST/BlueNRG-2/hci/bluenrg1_events_cb.c ****   * @brief The LE Long Term Key Request event indicates that the master device is
 441:Middlewares/ST/BlueNRG-2/hci/bluenrg1_events_cb.c **** attempting to encrypt or re-encrypt the link and is requesting the Long Term
 442:Middlewares/ST/BlueNRG-2/hci/bluenrg1_events_cb.c **** Key from the Host. (See [Vol 6] Part B, Section 5.1.3).
 443:Middlewares/ST/BlueNRG-2/hci/bluenrg1_events_cb.c ****   * @param Connection_Handle Connection handle to be used to identify the connection with the peer 
 444:Middlewares/ST/BlueNRG-2/hci/bluenrg1_events_cb.c ****   * Values:
 445:Middlewares/ST/BlueNRG-2/hci/bluenrg1_events_cb.c ****   - 0x0000 ... 0x0EFF
 446:Middlewares/ST/BlueNRG-2/hci/bluenrg1_events_cb.c ****   * @param Random_Number 64-bit random number
 447:Middlewares/ST/BlueNRG-2/hci/bluenrg1_events_cb.c ****   * @param Encrypted_Diversifier 16-bit encrypted diversifier
ARM GAS  C:\Users\zafee\AppData\Local\Temp\ccvOQAyH.s 			page 13


 448:Middlewares/ST/BlueNRG-2/hci/bluenrg1_events_cb.c ****   * @retval None
 449:Middlewares/ST/BlueNRG-2/hci/bluenrg1_events_cb.c **** */
 450:Middlewares/ST/BlueNRG-2/hci/bluenrg1_events_cb.c **** WEAK_FUNCTION(void hci_le_long_term_key_request_event(uint16_t Connection_Handle,
 451:Middlewares/ST/BlueNRG-2/hci/bluenrg1_events_cb.c ****                                         uint8_t Random_Number[8],
 452:Middlewares/ST/BlueNRG-2/hci/bluenrg1_events_cb.c ****                                         uint16_t Encrypted_Diversifier))
 453:Middlewares/ST/BlueNRG-2/hci/bluenrg1_events_cb.c **** {
 261              		.loc 1 453 1 is_stmt 1 view -0
 262              		.cfi_startproc
 263              		@ args = 0, pretend = 0, frame = 0
 264              		@ frame_needed = 0, uses_anonymous_args = 0
 265              		@ link register save eliminated.
 454:Middlewares/ST/BlueNRG-2/hci/bluenrg1_events_cb.c ****   /* NOTE : This function Should not be modified, when needed,
 455:Middlewares/ST/BlueNRG-2/hci/bluenrg1_events_cb.c ****             the callback could be implemented in the user file
 456:Middlewares/ST/BlueNRG-2/hci/bluenrg1_events_cb.c ****    */
 457:Middlewares/ST/BlueNRG-2/hci/bluenrg1_events_cb.c ****   BLUENRG_PRINTF("hci_le_long_term_key_request_event\r\n");
 266              		.loc 1 457 59 view .LVU34
 458:Middlewares/ST/BlueNRG-2/hci/bluenrg1_events_cb.c **** }
 267              		.loc 1 458 1 is_stmt 0 view .LVU35
 268 0000 7047     		bx	lr
 269              		.cfi_endproc
 270              	.LFE141:
 272              		.section	.text.hci_le_data_length_change_event,"ax",%progbits
 273              		.align	1
 274              		.weak	hci_le_data_length_change_event
 275              		.syntax unified
 276              		.thumb
 277              		.thumb_func
 279              	hci_le_data_length_change_event:
 280              	.LVL12:
 281              	.LFB142:
 459:Middlewares/ST/BlueNRG-2/hci/bluenrg1_events_cb.c **** /**
 460:Middlewares/ST/BlueNRG-2/hci/bluenrg1_events_cb.c ****   * @brief The LE Data Length Change event notifies the Host of a change to either the maximum Payl
 461:Middlewares/ST/BlueNRG-2/hci/bluenrg1_events_cb.c ****   * @param Connection_Handle Connection_Handle to be used to identify a connection.
 462:Middlewares/ST/BlueNRG-2/hci/bluenrg1_events_cb.c ****   * @param MaxTxOctets The maximum number of payload octets in a Link Layer Data Channel PDU that t
 463:Middlewares/ST/BlueNRG-2/hci/bluenrg1_events_cb.c **** Range 0x001B-0x00FB (0x0000 - 0x001A and 0x00FC - 0xFFFF Reserved for future use)
 464:Middlewares/ST/BlueNRG-2/hci/bluenrg1_events_cb.c ****   * @param MaxTxTime The maximum time that the local Controller will take to send a Link Layer Data
 465:Middlewares/ST/BlueNRG-2/hci/bluenrg1_events_cb.c **** Range 0x0148-0x0848 (0x0000 - 0x0127 and 0x0849 - 0xFFFF
 466:Middlewares/ST/BlueNRG-2/hci/bluenrg1_events_cb.c **** Reserved for future use)
 467:Middlewares/ST/BlueNRG-2/hci/bluenrg1_events_cb.c ****   * @param MaxRxOctets The maximum number of payload octets in a Link Layer Data Channel PDU that t
 468:Middlewares/ST/BlueNRG-2/hci/bluenrg1_events_cb.c **** Range 0x001B-0x00FB (0x0000 - 0x001A and 0x00FC - 0xFFFF Reserved for future use)
 469:Middlewares/ST/BlueNRG-2/hci/bluenrg1_events_cb.c ****   * @param MaxRxTime The maximum time that the local Controller expects to take to receive a Link L
 470:Middlewares/ST/BlueNRG-2/hci/bluenrg1_events_cb.c **** Range 0x0148-0x0848 (0x0000 - 0x0127 and 0x0849 - 0xFFFF Reserved for future use)
 471:Middlewares/ST/BlueNRG-2/hci/bluenrg1_events_cb.c ****   * @retval None
 472:Middlewares/ST/BlueNRG-2/hci/bluenrg1_events_cb.c **** */
 473:Middlewares/ST/BlueNRG-2/hci/bluenrg1_events_cb.c **** WEAK_FUNCTION(void hci_le_data_length_change_event(uint16_t Connection_Handle,
 474:Middlewares/ST/BlueNRG-2/hci/bluenrg1_events_cb.c ****                                      uint16_t MaxTxOctets,
 475:Middlewares/ST/BlueNRG-2/hci/bluenrg1_events_cb.c ****                                      uint16_t MaxTxTime,
 476:Middlewares/ST/BlueNRG-2/hci/bluenrg1_events_cb.c ****                                      uint16_t MaxRxOctets,
 477:Middlewares/ST/BlueNRG-2/hci/bluenrg1_events_cb.c ****                                      uint16_t MaxRxTime))
 478:Middlewares/ST/BlueNRG-2/hci/bluenrg1_events_cb.c **** {
 282              		.loc 1 478 1 is_stmt 1 view -0
 283              		.cfi_startproc
 284              		@ args = 4, pretend = 0, frame = 0
 285              		@ frame_needed = 0, uses_anonymous_args = 0
 286              		@ link register save eliminated.
 479:Middlewares/ST/BlueNRG-2/hci/bluenrg1_events_cb.c ****   /* NOTE : This function Should not be modified, when needed,
 480:Middlewares/ST/BlueNRG-2/hci/bluenrg1_events_cb.c ****             the callback could be implemented in the user file
ARM GAS  C:\Users\zafee\AppData\Local\Temp\ccvOQAyH.s 			page 14


 481:Middlewares/ST/BlueNRG-2/hci/bluenrg1_events_cb.c ****    */
 482:Middlewares/ST/BlueNRG-2/hci/bluenrg1_events_cb.c ****   BLUENRG_PRINTF("hci_le_data_length_change_event\r\n");
 287              		.loc 1 482 56 view .LVU37
 483:Middlewares/ST/BlueNRG-2/hci/bluenrg1_events_cb.c **** }
 288              		.loc 1 483 1 is_stmt 0 view .LVU38
 289 0000 7047     		bx	lr
 290              		.cfi_endproc
 291              	.LFE142:
 293              		.section	.text.hci_le_read_local_p256_public_key_complete_event,"ax",%progbits
 294              		.align	1
 295              		.weak	hci_le_read_local_p256_public_key_complete_event
 296              		.syntax unified
 297              		.thumb
 298              		.thumb_func
 300              	hci_le_read_local_p256_public_key_complete_event:
 301              	.LVL13:
 302              	.LFB143:
 484:Middlewares/ST/BlueNRG-2/hci/bluenrg1_events_cb.c **** /**
 485:Middlewares/ST/BlueNRG-2/hci/bluenrg1_events_cb.c ****   * @brief This event is generated when local P-256 key generation is complete.
 486:Middlewares/ST/BlueNRG-2/hci/bluenrg1_events_cb.c ****   * @param Status For standard error codes see Bluetooth specification, Vol. 2, part D. For proprie
 487:Middlewares/ST/BlueNRG-2/hci/bluenrg1_events_cb.c ****   * @param Local_P256_Public_Key Local P-256 public key.
 488:Middlewares/ST/BlueNRG-2/hci/bluenrg1_events_cb.c ****   * @retval None
 489:Middlewares/ST/BlueNRG-2/hci/bluenrg1_events_cb.c **** */
 490:Middlewares/ST/BlueNRG-2/hci/bluenrg1_events_cb.c **** WEAK_FUNCTION(void hci_le_read_local_p256_public_key_complete_event(uint8_t Status,
 491:Middlewares/ST/BlueNRG-2/hci/bluenrg1_events_cb.c ****                                                       uint8_t Local_P256_Public_Key[64]))
 492:Middlewares/ST/BlueNRG-2/hci/bluenrg1_events_cb.c **** {
 303              		.loc 1 492 1 is_stmt 1 view -0
 304              		.cfi_startproc
 305              		@ args = 0, pretend = 0, frame = 0
 306              		@ frame_needed = 0, uses_anonymous_args = 0
 307              		@ link register save eliminated.
 493:Middlewares/ST/BlueNRG-2/hci/bluenrg1_events_cb.c ****   /* NOTE : This function Should not be modified, when needed,
 494:Middlewares/ST/BlueNRG-2/hci/bluenrg1_events_cb.c ****             the callback could be implemented in the user file
 495:Middlewares/ST/BlueNRG-2/hci/bluenrg1_events_cb.c ****    */
 496:Middlewares/ST/BlueNRG-2/hci/bluenrg1_events_cb.c ****   BLUENRG_PRINTF("hci_le_read_local_p256_public_key_complete_event\r\n");
 308              		.loc 1 496 73 view .LVU40
 497:Middlewares/ST/BlueNRG-2/hci/bluenrg1_events_cb.c **** }
 309              		.loc 1 497 1 is_stmt 0 view .LVU41
 310 0000 7047     		bx	lr
 311              		.cfi_endproc
 312              	.LFE143:
 314              		.section	.text.hci_le_generate_dhkey_complete_event,"ax",%progbits
 315              		.align	1
 316              		.weak	hci_le_generate_dhkey_complete_event
 317              		.syntax unified
 318              		.thumb
 319              		.thumb_func
 321              	hci_le_generate_dhkey_complete_event:
 322              	.LVL14:
 323              	.LFB144:
 498:Middlewares/ST/BlueNRG-2/hci/bluenrg1_events_cb.c **** /**
 499:Middlewares/ST/BlueNRG-2/hci/bluenrg1_events_cb.c ****   * @brief This event indicates that LE Diffie Hellman key generation has been completed
 500:Middlewares/ST/BlueNRG-2/hci/bluenrg1_events_cb.c **** by the Controller.
 501:Middlewares/ST/BlueNRG-2/hci/bluenrg1_events_cb.c ****   * @param Status For standard error codes see Bluetooth specification, Vol. 2, part D. For proprie
 502:Middlewares/ST/BlueNRG-2/hci/bluenrg1_events_cb.c ****   * @param DHKey Diffie Hellman Key
 503:Middlewares/ST/BlueNRG-2/hci/bluenrg1_events_cb.c ****   * @retval None
 504:Middlewares/ST/BlueNRG-2/hci/bluenrg1_events_cb.c **** */
ARM GAS  C:\Users\zafee\AppData\Local\Temp\ccvOQAyH.s 			page 15


 505:Middlewares/ST/BlueNRG-2/hci/bluenrg1_events_cb.c **** WEAK_FUNCTION(void hci_le_generate_dhkey_complete_event(uint8_t Status,
 506:Middlewares/ST/BlueNRG-2/hci/bluenrg1_events_cb.c ****                                           uint8_t DHKey[32]))
 507:Middlewares/ST/BlueNRG-2/hci/bluenrg1_events_cb.c **** {
 324              		.loc 1 507 1 is_stmt 1 view -0
 325              		.cfi_startproc
 326              		@ args = 0, pretend = 0, frame = 0
 327              		@ frame_needed = 0, uses_anonymous_args = 0
 328              		@ link register save eliminated.
 508:Middlewares/ST/BlueNRG-2/hci/bluenrg1_events_cb.c ****   /* NOTE : This function Should not be modified, when needed,
 509:Middlewares/ST/BlueNRG-2/hci/bluenrg1_events_cb.c ****             the callback could be implemented in the user file
 510:Middlewares/ST/BlueNRG-2/hci/bluenrg1_events_cb.c ****    */
 511:Middlewares/ST/BlueNRG-2/hci/bluenrg1_events_cb.c ****   BLUENRG_PRINTF("hci_le_generate_dhkey_complete_event\r\n");
 329              		.loc 1 511 61 view .LVU43
 512:Middlewares/ST/BlueNRG-2/hci/bluenrg1_events_cb.c **** }
 330              		.loc 1 512 1 is_stmt 0 view .LVU44
 331 0000 7047     		bx	lr
 332              		.cfi_endproc
 333              	.LFE144:
 335              		.section	.text.hci_le_enhanced_connection_complete_event,"ax",%progbits
 336              		.align	1
 337              		.weak	hci_le_enhanced_connection_complete_event
 338              		.syntax unified
 339              		.thumb
 340              		.thumb_func
 342              	hci_le_enhanced_connection_complete_event:
 343              	.LVL15:
 344              	.LFB145:
 513:Middlewares/ST/BlueNRG-2/hci/bluenrg1_events_cb.c **** /**
 514:Middlewares/ST/BlueNRG-2/hci/bluenrg1_events_cb.c ****   * @brief The LE Enhanced Connection Complete event indicates to both of the Hosts
 515:Middlewares/ST/BlueNRG-2/hci/bluenrg1_events_cb.c **** forming the connection that a new connection has been created. Upon the
 516:Middlewares/ST/BlueNRG-2/hci/bluenrg1_events_cb.c **** creation of the connection a Connection_Handle shall be assigned by the
 517:Middlewares/ST/BlueNRG-2/hci/bluenrg1_events_cb.c **** Controller, and passed to the Host in this event. If the connection establishment
 518:Middlewares/ST/BlueNRG-2/hci/bluenrg1_events_cb.c **** fails, this event shall be provided to the Host that had issued the
 519:Middlewares/ST/BlueNRG-2/hci/bluenrg1_events_cb.c **** LE_Create_Connection command.
 520:Middlewares/ST/BlueNRG-2/hci/bluenrg1_events_cb.c **** If this event is unmasked and LE Connection Complete event is unmasked,
 521:Middlewares/ST/BlueNRG-2/hci/bluenrg1_events_cb.c **** only the LE Enhanced Connection Complete event is sent when a new
 522:Middlewares/ST/BlueNRG-2/hci/bluenrg1_events_cb.c **** connection has been completed.
 523:Middlewares/ST/BlueNRG-2/hci/bluenrg1_events_cb.c **** This event indicates to the Host that issued a LE_Create_Connection
 524:Middlewares/ST/BlueNRG-2/hci/bluenrg1_events_cb.c **** command and received a Command Status event if the connection
 525:Middlewares/ST/BlueNRG-2/hci/bluenrg1_events_cb.c **** establishment failed or was successful.
 526:Middlewares/ST/BlueNRG-2/hci/bluenrg1_events_cb.c **** The Master_Clock_Accuracy parameter is only valid for a slave. On a master,
 527:Middlewares/ST/BlueNRG-2/hci/bluenrg1_events_cb.c **** this parameter shall be set to 0x00.
 528:Middlewares/ST/BlueNRG-2/hci/bluenrg1_events_cb.c ****   * @param Status For standard error codes see Bluetooth specification, Vol. 2, part D. For proprie
 529:Middlewares/ST/BlueNRG-2/hci/bluenrg1_events_cb.c ****   * @param Connection_Handle Connection handle to be used to identify the connection with the peer 
 530:Middlewares/ST/BlueNRG-2/hci/bluenrg1_events_cb.c ****   * Values:
 531:Middlewares/ST/BlueNRG-2/hci/bluenrg1_events_cb.c ****   - 0x0000 ... 0x0EFF
 532:Middlewares/ST/BlueNRG-2/hci/bluenrg1_events_cb.c ****   * @param Role Role of the local device in the connection.
 533:Middlewares/ST/BlueNRG-2/hci/bluenrg1_events_cb.c ****   * Values:
 534:Middlewares/ST/BlueNRG-2/hci/bluenrg1_events_cb.c ****   - 0x00: Master
 535:Middlewares/ST/BlueNRG-2/hci/bluenrg1_events_cb.c ****   - 0x01: Slave
 536:Middlewares/ST/BlueNRG-2/hci/bluenrg1_events_cb.c ****   * @param Peer_Address_Type 0x00 Public Device Address
 537:Middlewares/ST/BlueNRG-2/hci/bluenrg1_events_cb.c **** 0x01 Random Device Address
 538:Middlewares/ST/BlueNRG-2/hci/bluenrg1_events_cb.c **** 0x02 Public Identity Address (Corresponds to Resolved Private Address)
 539:Middlewares/ST/BlueNRG-2/hci/bluenrg1_events_cb.c **** 0x03 Random (Static) Identity Address (Corresponds to Resolved Private Address)
 540:Middlewares/ST/BlueNRG-2/hci/bluenrg1_events_cb.c ****   * Values:
 541:Middlewares/ST/BlueNRG-2/hci/bluenrg1_events_cb.c ****   - 0x00: Public Device Address
 542:Middlewares/ST/BlueNRG-2/hci/bluenrg1_events_cb.c ****   - 0x01: Random Device Address
ARM GAS  C:\Users\zafee\AppData\Local\Temp\ccvOQAyH.s 			page 16


 543:Middlewares/ST/BlueNRG-2/hci/bluenrg1_events_cb.c ****   - 0x02: Public Identity Address
 544:Middlewares/ST/BlueNRG-2/hci/bluenrg1_events_cb.c ****   - 0x03: Random (Static) Identity Address
 545:Middlewares/ST/BlueNRG-2/hci/bluenrg1_events_cb.c ****   * @param Peer_Address Public Device Address, Random Device Address, Public Identity
 546:Middlewares/ST/BlueNRG-2/hci/bluenrg1_events_cb.c **** Address or Random (static) Identity Address of the device to be connected.
 547:Middlewares/ST/BlueNRG-2/hci/bluenrg1_events_cb.c ****   * @param Local_Resolvable_Private_Address Resolvable Private Address being used by the local devi
 548:Middlewares/ST/BlueNRG-2/hci/bluenrg1_events_cb.c **** This is only valid when the Own_Address_Type is set to 0x02 or 0x03. For other Own_Address_Type val
 549:Middlewares/ST/BlueNRG-2/hci/bluenrg1_events_cb.c **** the Controller shall return all zeros.
 550:Middlewares/ST/BlueNRG-2/hci/bluenrg1_events_cb.c ****   * @param Peer_Resolvable_Private_Address Resolvable Private Address being used by the peer device
 551:Middlewares/ST/BlueNRG-2/hci/bluenrg1_events_cb.c **** This is only valid for Peer_Address_Type 0x02 and 0x03. For
 552:Middlewares/ST/BlueNRG-2/hci/bluenrg1_events_cb.c **** other Peer_Address_Type values, the Controller shall return all zeros.
 553:Middlewares/ST/BlueNRG-2/hci/bluenrg1_events_cb.c ****   * @param Conn_Interval Connection interval used on this connection.
 554:Middlewares/ST/BlueNRG-2/hci/bluenrg1_events_cb.c **** Time = N * 1.25 msec
 555:Middlewares/ST/BlueNRG-2/hci/bluenrg1_events_cb.c ****   * Values:
 556:Middlewares/ST/BlueNRG-2/hci/bluenrg1_events_cb.c ****   - 0x0006 (7.50 ms)  ... 0x0C80 (4000.00 ms) 
 557:Middlewares/ST/BlueNRG-2/hci/bluenrg1_events_cb.c ****   * @param Conn_Latency Slave latency for the connection in number of connection events.
 558:Middlewares/ST/BlueNRG-2/hci/bluenrg1_events_cb.c ****   * Values:
 559:Middlewares/ST/BlueNRG-2/hci/bluenrg1_events_cb.c ****   - 0x0000 ... 0x01F3
 560:Middlewares/ST/BlueNRG-2/hci/bluenrg1_events_cb.c ****   * @param Supervision_Timeout Supervision timeout for the LE Link.
 561:Middlewares/ST/BlueNRG-2/hci/bluenrg1_events_cb.c **** It shall be a multiple of 10 ms and larger than (1 + connSlaveLatency) * connInterval * 2.
 562:Middlewares/ST/BlueNRG-2/hci/bluenrg1_events_cb.c **** Time = N * 10 msec.
 563:Middlewares/ST/BlueNRG-2/hci/bluenrg1_events_cb.c ****   * Values:
 564:Middlewares/ST/BlueNRG-2/hci/bluenrg1_events_cb.c ****   - 0x000A (100 ms)  ... 0x0C80 (32000 ms) 
 565:Middlewares/ST/BlueNRG-2/hci/bluenrg1_events_cb.c ****   * @param Master_Clock_Accuracy Master clock accuracy. Only valid for a slave.
 566:Middlewares/ST/BlueNRG-2/hci/bluenrg1_events_cb.c ****   * Values:
 567:Middlewares/ST/BlueNRG-2/hci/bluenrg1_events_cb.c ****   - 0x00: 500 ppm
 568:Middlewares/ST/BlueNRG-2/hci/bluenrg1_events_cb.c ****   - 0x01: 250 ppm
 569:Middlewares/ST/BlueNRG-2/hci/bluenrg1_events_cb.c ****   - 0x02: 150 ppm
 570:Middlewares/ST/BlueNRG-2/hci/bluenrg1_events_cb.c ****   - 0x03: 100 ppm
 571:Middlewares/ST/BlueNRG-2/hci/bluenrg1_events_cb.c ****   - 0x04: 75 ppm
 572:Middlewares/ST/BlueNRG-2/hci/bluenrg1_events_cb.c ****   - 0x05: 50 ppm
 573:Middlewares/ST/BlueNRG-2/hci/bluenrg1_events_cb.c ****   - 0x06: 30 ppm
 574:Middlewares/ST/BlueNRG-2/hci/bluenrg1_events_cb.c ****   - 0x07: 20 ppm
 575:Middlewares/ST/BlueNRG-2/hci/bluenrg1_events_cb.c ****   * @retval None
 576:Middlewares/ST/BlueNRG-2/hci/bluenrg1_events_cb.c **** */
 577:Middlewares/ST/BlueNRG-2/hci/bluenrg1_events_cb.c **** WEAK_FUNCTION(void hci_le_enhanced_connection_complete_event(uint8_t Status,
 578:Middlewares/ST/BlueNRG-2/hci/bluenrg1_events_cb.c ****                                                uint16_t Connection_Handle,
 579:Middlewares/ST/BlueNRG-2/hci/bluenrg1_events_cb.c ****                                                uint8_t Role,
 580:Middlewares/ST/BlueNRG-2/hci/bluenrg1_events_cb.c ****                                                uint8_t Peer_Address_Type,
 581:Middlewares/ST/BlueNRG-2/hci/bluenrg1_events_cb.c ****                                                uint8_t Peer_Address[6],
 582:Middlewares/ST/BlueNRG-2/hci/bluenrg1_events_cb.c ****                                                uint8_t Local_Resolvable_Private_Address[6],
 583:Middlewares/ST/BlueNRG-2/hci/bluenrg1_events_cb.c ****                                                uint8_t Peer_Resolvable_Private_Address[6],
 584:Middlewares/ST/BlueNRG-2/hci/bluenrg1_events_cb.c ****                                                uint16_t Conn_Interval,
 585:Middlewares/ST/BlueNRG-2/hci/bluenrg1_events_cb.c ****                                                uint16_t Conn_Latency,
 586:Middlewares/ST/BlueNRG-2/hci/bluenrg1_events_cb.c ****                                                uint16_t Supervision_Timeout,
 587:Middlewares/ST/BlueNRG-2/hci/bluenrg1_events_cb.c ****                                                uint8_t Master_Clock_Accuracy))
 588:Middlewares/ST/BlueNRG-2/hci/bluenrg1_events_cb.c **** {
 345              		.loc 1 588 1 is_stmt 1 view -0
 346              		.cfi_startproc
 347              		@ args = 28, pretend = 0, frame = 0
 348              		@ frame_needed = 0, uses_anonymous_args = 0
 349              		@ link register save eliminated.
 589:Middlewares/ST/BlueNRG-2/hci/bluenrg1_events_cb.c ****   /* NOTE : This function Should not be modified, when needed,
 590:Middlewares/ST/BlueNRG-2/hci/bluenrg1_events_cb.c ****             the callback could be implemented in the user file
 591:Middlewares/ST/BlueNRG-2/hci/bluenrg1_events_cb.c ****    */
 592:Middlewares/ST/BlueNRG-2/hci/bluenrg1_events_cb.c ****   BLUENRG_PRINTF("hci_le_enhanced_connection_complete_event\r\n");
 350              		.loc 1 592 66 view .LVU46
 593:Middlewares/ST/BlueNRG-2/hci/bluenrg1_events_cb.c **** }
ARM GAS  C:\Users\zafee\AppData\Local\Temp\ccvOQAyH.s 			page 17


 351              		.loc 1 593 1 is_stmt 0 view .LVU47
 352 0000 7047     		bx	lr
 353              		.cfi_endproc
 354              	.LFE145:
 356              		.section	.text.hci_le_direct_advertising_report_event,"ax",%progbits
 357              		.align	1
 358              		.weak	hci_le_direct_advertising_report_event
 359              		.syntax unified
 360              		.thumb
 361              		.thumb_func
 363              	hci_le_direct_advertising_report_event:
 364              	.LVL16:
 365              	.LFB146:
 594:Middlewares/ST/BlueNRG-2/hci/bluenrg1_events_cb.c **** /**
 595:Middlewares/ST/BlueNRG-2/hci/bluenrg1_events_cb.c ****   * @brief The LE Direct Advertising Report event indicates that directed advertisements
 596:Middlewares/ST/BlueNRG-2/hci/bluenrg1_events_cb.c **** have been received where the advertiser is using a resolvable private address
 597:Middlewares/ST/BlueNRG-2/hci/bluenrg1_events_cb.c **** for the InitA field in the ADV_DIRECT_IND PDU and the
 598:Middlewares/ST/BlueNRG-2/hci/bluenrg1_events_cb.c **** Scanning_Filter_Policy is equal to 0x02 or 0x03, see HCI_LE_Set_Scan_Parameters.
 599:Middlewares/ST/BlueNRG-2/hci/bluenrg1_events_cb.c **** Direct_Address_Type and Direct_Addres is the address the directed
 600:Middlewares/ST/BlueNRG-2/hci/bluenrg1_events_cb.c **** advertisements are being directed to. Address_Type and Address is the
 601:Middlewares/ST/BlueNRG-2/hci/bluenrg1_events_cb.c **** address of the advertiser sending the directed advertisements.
 602:Middlewares/ST/BlueNRG-2/hci/bluenrg1_events_cb.c ****   * @param Num_Reports Number of responses in this event.
 603:Middlewares/ST/BlueNRG-2/hci/bluenrg1_events_cb.c ****   * Values:
 604:Middlewares/ST/BlueNRG-2/hci/bluenrg1_events_cb.c ****   - 0x01
 605:Middlewares/ST/BlueNRG-2/hci/bluenrg1_events_cb.c ****   * @param Direct_Advertising_Report See @ref Direct_Advertising_Report_t
 606:Middlewares/ST/BlueNRG-2/hci/bluenrg1_events_cb.c ****   * @retval None
 607:Middlewares/ST/BlueNRG-2/hci/bluenrg1_events_cb.c **** */
 608:Middlewares/ST/BlueNRG-2/hci/bluenrg1_events_cb.c **** WEAK_FUNCTION(void hci_le_direct_advertising_report_event(uint8_t Num_Reports,
 609:Middlewares/ST/BlueNRG-2/hci/bluenrg1_events_cb.c ****                                             Direct_Advertising_Report_t Direct_Advertising_Report[]
 610:Middlewares/ST/BlueNRG-2/hci/bluenrg1_events_cb.c **** {
 366              		.loc 1 610 1 is_stmt 1 view -0
 367              		.cfi_startproc
 368              		@ args = 0, pretend = 0, frame = 0
 369              		@ frame_needed = 0, uses_anonymous_args = 0
 370              		@ link register save eliminated.
 611:Middlewares/ST/BlueNRG-2/hci/bluenrg1_events_cb.c ****   /* NOTE : This function Should not be modified, when needed,
 612:Middlewares/ST/BlueNRG-2/hci/bluenrg1_events_cb.c ****             the callback could be implemented in the user file
 613:Middlewares/ST/BlueNRG-2/hci/bluenrg1_events_cb.c ****    */
 614:Middlewares/ST/BlueNRG-2/hci/bluenrg1_events_cb.c ****   BLUENRG_PRINTF("hci_le_direct_advertising_report_event\r\n");
 371              		.loc 1 614 63 view .LVU49
 615:Middlewares/ST/BlueNRG-2/hci/bluenrg1_events_cb.c **** }
 372              		.loc 1 615 1 is_stmt 0 view .LVU50
 373 0000 7047     		bx	lr
 374              		.cfi_endproc
 375              	.LFE146:
 377              		.section	.text.aci_gap_limited_discoverable_event,"ax",%progbits
 378              		.align	1
 379              		.weak	aci_gap_limited_discoverable_event
 380              		.syntax unified
 381              		.thumb
 382              		.thumb_func
 384              	aci_gap_limited_discoverable_event:
 385              	.LFB147:
 616:Middlewares/ST/BlueNRG-2/hci/bluenrg1_events_cb.c **** /**
 617:Middlewares/ST/BlueNRG-2/hci/bluenrg1_events_cb.c ****  * @}
 618:Middlewares/ST/BlueNRG-2/hci/bluenrg1_events_cb.c ****  */
 619:Middlewares/ST/BlueNRG-2/hci/bluenrg1_events_cb.c **** /**
ARM GAS  C:\Users\zafee\AppData\Local\Temp\ccvOQAyH.s 			page 18


 620:Middlewares/ST/BlueNRG-2/hci/bluenrg1_events_cb.c ****  *@defgroup ACI_GAP_events ACI GAP events
 621:Middlewares/ST/BlueNRG-2/hci/bluenrg1_events_cb.c ****  *@brief ACI GAP events layer.
 622:Middlewares/ST/BlueNRG-2/hci/bluenrg1_events_cb.c ****  *@{
 623:Middlewares/ST/BlueNRG-2/hci/bluenrg1_events_cb.c ****  */
 624:Middlewares/ST/BlueNRG-2/hci/bluenrg1_events_cb.c **** /* ACI GAP events */
 625:Middlewares/ST/BlueNRG-2/hci/bluenrg1_events_cb.c **** /**
 626:Middlewares/ST/BlueNRG-2/hci/bluenrg1_events_cb.c ****   * @brief This event is generated by the controller when the limited discoverable mode ends due to
 627:Middlewares/ST/BlueNRG-2/hci/bluenrg1_events_cb.c **** timeout. The timeout is 180 seconds.
 628:Middlewares/ST/BlueNRG-2/hci/bluenrg1_events_cb.c ****   * @retval None
 629:Middlewares/ST/BlueNRG-2/hci/bluenrg1_events_cb.c **** */
 630:Middlewares/ST/BlueNRG-2/hci/bluenrg1_events_cb.c **** WEAK_FUNCTION(void aci_gap_limited_discoverable_event(void))
 631:Middlewares/ST/BlueNRG-2/hci/bluenrg1_events_cb.c **** {
 386              		.loc 1 631 1 is_stmt 1 view -0
 387              		.cfi_startproc
 388              		@ args = 0, pretend = 0, frame = 0
 389              		@ frame_needed = 0, uses_anonymous_args = 0
 390              		@ link register save eliminated.
 632:Middlewares/ST/BlueNRG-2/hci/bluenrg1_events_cb.c ****   /* NOTE : This function Should not be modified, when needed,
 633:Middlewares/ST/BlueNRG-2/hci/bluenrg1_events_cb.c ****             the callback could be implemented in the user file
 634:Middlewares/ST/BlueNRG-2/hci/bluenrg1_events_cb.c ****    */
 635:Middlewares/ST/BlueNRG-2/hci/bluenrg1_events_cb.c ****   BLUENRG_PRINTF("aci_gap_limited_discoverable_event\r\n");
 391              		.loc 1 635 59 view .LVU52
 636:Middlewares/ST/BlueNRG-2/hci/bluenrg1_events_cb.c **** }
 392              		.loc 1 636 1 is_stmt 0 view .LVU53
 393 0000 7047     		bx	lr
 394              		.cfi_endproc
 395              	.LFE147:
 397              		.section	.text.aci_gap_pairing_complete_event,"ax",%progbits
 398              		.align	1
 399              		.weak	aci_gap_pairing_complete_event
 400              		.syntax unified
 401              		.thumb
 402              		.thumb_func
 404              	aci_gap_pairing_complete_event:
 405              	.LVL17:
 406              	.LFB148:
 637:Middlewares/ST/BlueNRG-2/hci/bluenrg1_events_cb.c **** /**
 638:Middlewares/ST/BlueNRG-2/hci/bluenrg1_events_cb.c ****   * @brief This event is generated when the pairing process has completed successfully or a pairing
 639:Middlewares/ST/BlueNRG-2/hci/bluenrg1_events_cb.c **** procedure timeout has occurred or the pairing has failed. This is to notify the application that
 640:Middlewares/ST/BlueNRG-2/hci/bluenrg1_events_cb.c **** we have paired with a remote device so that it can take further actions or to notify that a
 641:Middlewares/ST/BlueNRG-2/hci/bluenrg1_events_cb.c **** timeout has occurred so that the upper layer can decide to disconnect the link.
 642:Middlewares/ST/BlueNRG-2/hci/bluenrg1_events_cb.c ****   * @param Connection_Handle Connection handle on which the pairing procedure completed
 643:Middlewares/ST/BlueNRG-2/hci/bluenrg1_events_cb.c ****   * @param Status Pairing status
 644:Middlewares/ST/BlueNRG-2/hci/bluenrg1_events_cb.c ****   * Values:
 645:Middlewares/ST/BlueNRG-2/hci/bluenrg1_events_cb.c ****   - 0x00: Success
 646:Middlewares/ST/BlueNRG-2/hci/bluenrg1_events_cb.c ****   - 0x01: Timeout
 647:Middlewares/ST/BlueNRG-2/hci/bluenrg1_events_cb.c ****   - 0x02: Failed
 648:Middlewares/ST/BlueNRG-2/hci/bluenrg1_events_cb.c ****   * @param Reason Pairing reason error code
 649:Middlewares/ST/BlueNRG-2/hci/bluenrg1_events_cb.c ****   * Values:
 650:Middlewares/ST/BlueNRG-2/hci/bluenrg1_events_cb.c ****   - 0x00
 651:Middlewares/ST/BlueNRG-2/hci/bluenrg1_events_cb.c ****   - 0x01: PASSKEY_ENTRY_FAILED
 652:Middlewares/ST/BlueNRG-2/hci/bluenrg1_events_cb.c ****   - 0x02: OOB_NOT_AVAILABLE
 653:Middlewares/ST/BlueNRG-2/hci/bluenrg1_events_cb.c ****   - 0x03: AUTH_REQ_CANNOT_BE_MET
 654:Middlewares/ST/BlueNRG-2/hci/bluenrg1_events_cb.c ****   - 0x04: CONFIRM_VALUE_FAILED
 655:Middlewares/ST/BlueNRG-2/hci/bluenrg1_events_cb.c ****   - 0x05: PAIRING_NOT_SUPPORTED
 656:Middlewares/ST/BlueNRG-2/hci/bluenrg1_events_cb.c ****   - 0x06: INSUFF_ENCRYPTION_KEY_SIZE
 657:Middlewares/ST/BlueNRG-2/hci/bluenrg1_events_cb.c ****   - 0x07: CMD_NOT_SUPPORTED
ARM GAS  C:\Users\zafee\AppData\Local\Temp\ccvOQAyH.s 			page 19


 658:Middlewares/ST/BlueNRG-2/hci/bluenrg1_events_cb.c ****   - 0x08: UNSPECIFIED_REASON
 659:Middlewares/ST/BlueNRG-2/hci/bluenrg1_events_cb.c ****   - 0x09: VERY_EARLY_NEXT_ATTEMPT
 660:Middlewares/ST/BlueNRG-2/hci/bluenrg1_events_cb.c ****   - 0x0A: SM_INVALID_PARAMS
 661:Middlewares/ST/BlueNRG-2/hci/bluenrg1_events_cb.c ****   - 0x0B: SMP_SC_DHKEY_CHECK_FAILED
 662:Middlewares/ST/BlueNRG-2/hci/bluenrg1_events_cb.c ****   - 0x0C: SMP_SC_NUMCOMPARISON_FAILED
 663:Middlewares/ST/BlueNRG-2/hci/bluenrg1_events_cb.c ****   * @retval None
 664:Middlewares/ST/BlueNRG-2/hci/bluenrg1_events_cb.c **** */
 665:Middlewares/ST/BlueNRG-2/hci/bluenrg1_events_cb.c **** WEAK_FUNCTION(void aci_gap_pairing_complete_event(uint16_t Connection_Handle,
 666:Middlewares/ST/BlueNRG-2/hci/bluenrg1_events_cb.c ****                                     uint8_t Status,
 667:Middlewares/ST/BlueNRG-2/hci/bluenrg1_events_cb.c ****                                     uint8_t Reason))
 668:Middlewares/ST/BlueNRG-2/hci/bluenrg1_events_cb.c **** {
 407              		.loc 1 668 1 is_stmt 1 view -0
 408              		.cfi_startproc
 409              		@ args = 0, pretend = 0, frame = 0
 410              		@ frame_needed = 0, uses_anonymous_args = 0
 411              		@ link register save eliminated.
 669:Middlewares/ST/BlueNRG-2/hci/bluenrg1_events_cb.c ****   /* NOTE : This function Should not be modified, when needed,
 670:Middlewares/ST/BlueNRG-2/hci/bluenrg1_events_cb.c ****             the callback could be implemented in the user file
 671:Middlewares/ST/BlueNRG-2/hci/bluenrg1_events_cb.c ****    */
 672:Middlewares/ST/BlueNRG-2/hci/bluenrg1_events_cb.c ****   BLUENRG_PRINTF("aci_gap_pairing_complete_event\r\n");
 412              		.loc 1 672 55 view .LVU55
 673:Middlewares/ST/BlueNRG-2/hci/bluenrg1_events_cb.c **** }
 413              		.loc 1 673 1 is_stmt 0 view .LVU56
 414 0000 7047     		bx	lr
 415              		.cfi_endproc
 416              	.LFE148:
 418              		.section	.text.aci_gap_pass_key_req_event,"ax",%progbits
 419              		.align	1
 420              		.weak	aci_gap_pass_key_req_event
 421              		.syntax unified
 422              		.thumb
 423              		.thumb_func
 425              	aci_gap_pass_key_req_event:
 426              	.LVL18:
 427              	.LFB149:
 674:Middlewares/ST/BlueNRG-2/hci/bluenrg1_events_cb.c **** /**
 675:Middlewares/ST/BlueNRG-2/hci/bluenrg1_events_cb.c ****   * @brief This event is generated by the Security manager to the application when a passkey is
 676:Middlewares/ST/BlueNRG-2/hci/bluenrg1_events_cb.c **** required for pairing. When this event is received, the application has to respond with the
 677:Middlewares/ST/BlueNRG-2/hci/bluenrg1_events_cb.c **** @ref aci_gap_pass_key_resp command.
 678:Middlewares/ST/BlueNRG-2/hci/bluenrg1_events_cb.c ****   * @param Connection_Handle Connection handle for which the passkey has been requested.
 679:Middlewares/ST/BlueNRG-2/hci/bluenrg1_events_cb.c ****   * @retval None
 680:Middlewares/ST/BlueNRG-2/hci/bluenrg1_events_cb.c **** */
 681:Middlewares/ST/BlueNRG-2/hci/bluenrg1_events_cb.c **** WEAK_FUNCTION(void aci_gap_pass_key_req_event(uint16_t Connection_Handle))
 682:Middlewares/ST/BlueNRG-2/hci/bluenrg1_events_cb.c **** {
 428              		.loc 1 682 1 is_stmt 1 view -0
 429              		.cfi_startproc
 430              		@ args = 0, pretend = 0, frame = 0
 431              		@ frame_needed = 0, uses_anonymous_args = 0
 432              		@ link register save eliminated.
 683:Middlewares/ST/BlueNRG-2/hci/bluenrg1_events_cb.c ****   /* NOTE : This function Should not be modified, when needed,
 684:Middlewares/ST/BlueNRG-2/hci/bluenrg1_events_cb.c ****             the callback could be implemented in the user file
 685:Middlewares/ST/BlueNRG-2/hci/bluenrg1_events_cb.c ****    */
 686:Middlewares/ST/BlueNRG-2/hci/bluenrg1_events_cb.c ****   BLUENRG_PRINTF("aci_gap_pass_key_req_event\r\n");
 433              		.loc 1 686 51 view .LVU58
 687:Middlewares/ST/BlueNRG-2/hci/bluenrg1_events_cb.c **** }
 434              		.loc 1 687 1 is_stmt 0 view .LVU59
 435 0000 7047     		bx	lr
ARM GAS  C:\Users\zafee\AppData\Local\Temp\ccvOQAyH.s 			page 20


 436              		.cfi_endproc
 437              	.LFE149:
 439              		.section	.text.aci_gap_authorization_req_event,"ax",%progbits
 440              		.align	1
 441              		.weak	aci_gap_authorization_req_event
 442              		.syntax unified
 443              		.thumb
 444              		.thumb_func
 446              	aci_gap_authorization_req_event:
 447              	.LVL19:
 448              	.LFB150:
 688:Middlewares/ST/BlueNRG-2/hci/bluenrg1_events_cb.c **** /**
 689:Middlewares/ST/BlueNRG-2/hci/bluenrg1_events_cb.c ****   * @brief This event is generated by the Security manager to the application when the application 
 690:Middlewares/ST/BlueNRG-2/hci/bluenrg1_events_cb.c **** set that authorization is required for reading/writing of attributes. This event will be
 691:Middlewares/ST/BlueNRG-2/hci/bluenrg1_events_cb.c **** generated as soon as the pairing is complete. When this event is received,
 692:Middlewares/ST/BlueNRG-2/hci/bluenrg1_events_cb.c **** @ref aci_gap_authorization_resp command should be used to respond by the application.
 693:Middlewares/ST/BlueNRG-2/hci/bluenrg1_events_cb.c ****   * @param Connection_Handle Connection handle for which authorization has been requested.
 694:Middlewares/ST/BlueNRG-2/hci/bluenrg1_events_cb.c ****   * @retval None
 695:Middlewares/ST/BlueNRG-2/hci/bluenrg1_events_cb.c **** */
 696:Middlewares/ST/BlueNRG-2/hci/bluenrg1_events_cb.c **** WEAK_FUNCTION(void aci_gap_authorization_req_event(uint16_t Connection_Handle))
 697:Middlewares/ST/BlueNRG-2/hci/bluenrg1_events_cb.c **** {
 449              		.loc 1 697 1 is_stmt 1 view -0
 450              		.cfi_startproc
 451              		@ args = 0, pretend = 0, frame = 0
 452              		@ frame_needed = 0, uses_anonymous_args = 0
 453              		@ link register save eliminated.
 698:Middlewares/ST/BlueNRG-2/hci/bluenrg1_events_cb.c ****   /* NOTE : This function Should not be modified, when needed,
 699:Middlewares/ST/BlueNRG-2/hci/bluenrg1_events_cb.c ****             the callback could be implemented in the user file
 700:Middlewares/ST/BlueNRG-2/hci/bluenrg1_events_cb.c ****    */
 701:Middlewares/ST/BlueNRG-2/hci/bluenrg1_events_cb.c ****   BLUENRG_PRINTF("aci_gap_authorization_req_event\r\n");
 454              		.loc 1 701 56 view .LVU61
 702:Middlewares/ST/BlueNRG-2/hci/bluenrg1_events_cb.c **** }
 455              		.loc 1 702 1 is_stmt 0 view .LVU62
 456 0000 7047     		bx	lr
 457              		.cfi_endproc
 458              	.LFE150:
 460              		.section	.text.aci_gap_slave_security_initiated_event,"ax",%progbits
 461              		.align	1
 462              		.weak	aci_gap_slave_security_initiated_event
 463              		.syntax unified
 464              		.thumb
 465              		.thumb_func
 467              	aci_gap_slave_security_initiated_event:
 468              	.LFB151:
 703:Middlewares/ST/BlueNRG-2/hci/bluenrg1_events_cb.c **** /**
 704:Middlewares/ST/BlueNRG-2/hci/bluenrg1_events_cb.c ****   * @brief This event is generated when the slave security request is successfully sent to the mast
 705:Middlewares/ST/BlueNRG-2/hci/bluenrg1_events_cb.c ****   * @retval None
 706:Middlewares/ST/BlueNRG-2/hci/bluenrg1_events_cb.c **** */
 707:Middlewares/ST/BlueNRG-2/hci/bluenrg1_events_cb.c **** WEAK_FUNCTION(void aci_gap_slave_security_initiated_event(void))
 708:Middlewares/ST/BlueNRG-2/hci/bluenrg1_events_cb.c **** {
 469              		.loc 1 708 1 is_stmt 1 view -0
 470              		.cfi_startproc
 471              		@ args = 0, pretend = 0, frame = 0
 472              		@ frame_needed = 0, uses_anonymous_args = 0
 473              		@ link register save eliminated.
 709:Middlewares/ST/BlueNRG-2/hci/bluenrg1_events_cb.c ****   /* NOTE : This function Should not be modified, when needed,
 710:Middlewares/ST/BlueNRG-2/hci/bluenrg1_events_cb.c ****             the callback could be implemented in the user file
ARM GAS  C:\Users\zafee\AppData\Local\Temp\ccvOQAyH.s 			page 21


 711:Middlewares/ST/BlueNRG-2/hci/bluenrg1_events_cb.c ****    */
 712:Middlewares/ST/BlueNRG-2/hci/bluenrg1_events_cb.c ****   BLUENRG_PRINTF("aci_gap_slave_security_initiated_event\r\n");
 474              		.loc 1 712 63 view .LVU64
 713:Middlewares/ST/BlueNRG-2/hci/bluenrg1_events_cb.c **** }
 475              		.loc 1 713 1 is_stmt 0 view .LVU65
 476 0000 7047     		bx	lr
 477              		.cfi_endproc
 478              	.LFE151:
 480              		.section	.text.aci_gap_bond_lost_event,"ax",%progbits
 481              		.align	1
 482              		.weak	aci_gap_bond_lost_event
 483              		.syntax unified
 484              		.thumb
 485              		.thumb_func
 487              	aci_gap_bond_lost_event:
 488              	.LFB152:
 714:Middlewares/ST/BlueNRG-2/hci/bluenrg1_events_cb.c **** /**
 715:Middlewares/ST/BlueNRG-2/hci/bluenrg1_events_cb.c ****   * @brief This event is generated when a pairing request is issued in response to a slave security
 716:Middlewares/ST/BlueNRG-2/hci/bluenrg1_events_cb.c **** request from a master which has previously bonded with the slave. When this event is
 717:Middlewares/ST/BlueNRG-2/hci/bluenrg1_events_cb.c **** received, the upper layer has to issue the command @ref aci_gap_allow_rebond in order to
 718:Middlewares/ST/BlueNRG-2/hci/bluenrg1_events_cb.c **** allow the slave to continue the pairing process with the master.
 719:Middlewares/ST/BlueNRG-2/hci/bluenrg1_events_cb.c ****   * @retval None
 720:Middlewares/ST/BlueNRG-2/hci/bluenrg1_events_cb.c **** */
 721:Middlewares/ST/BlueNRG-2/hci/bluenrg1_events_cb.c **** WEAK_FUNCTION(void aci_gap_bond_lost_event(void))
 722:Middlewares/ST/BlueNRG-2/hci/bluenrg1_events_cb.c **** {
 489              		.loc 1 722 1 is_stmt 1 view -0
 490              		.cfi_startproc
 491              		@ args = 0, pretend = 0, frame = 0
 492              		@ frame_needed = 0, uses_anonymous_args = 0
 493              		@ link register save eliminated.
 723:Middlewares/ST/BlueNRG-2/hci/bluenrg1_events_cb.c ****   /* NOTE : This function Should not be modified, when needed,
 724:Middlewares/ST/BlueNRG-2/hci/bluenrg1_events_cb.c ****             the callback could be implemented in the user file
 725:Middlewares/ST/BlueNRG-2/hci/bluenrg1_events_cb.c ****    */
 726:Middlewares/ST/BlueNRG-2/hci/bluenrg1_events_cb.c ****   BLUENRG_PRINTF("aci_gap_bond_lost_event\r\n");
 494              		.loc 1 726 48 view .LVU67
 727:Middlewares/ST/BlueNRG-2/hci/bluenrg1_events_cb.c **** }
 495              		.loc 1 727 1 is_stmt 0 view .LVU68
 496 0000 7047     		bx	lr
 497              		.cfi_endproc
 498              	.LFE152:
 500              		.section	.text.aci_gap_proc_complete_event,"ax",%progbits
 501              		.align	1
 502              		.weak	aci_gap_proc_complete_event
 503              		.syntax unified
 504              		.thumb
 505              		.thumb_func
 507              	aci_gap_proc_complete_event:
 508              	.LVL20:
 509              	.LFB153:
 728:Middlewares/ST/BlueNRG-2/hci/bluenrg1_events_cb.c **** /**
 729:Middlewares/ST/BlueNRG-2/hci/bluenrg1_events_cb.c ****   * @brief This event is sent by the GAP to the upper layers when a procedure previously started ha
 730:Middlewares/ST/BlueNRG-2/hci/bluenrg1_events_cb.c **** been terminated by the upper layer or has completed for any other reason
 731:Middlewares/ST/BlueNRG-2/hci/bluenrg1_events_cb.c ****   * @param Procedure_Code Terminated procedure.
 732:Middlewares/ST/BlueNRG-2/hci/bluenrg1_events_cb.c ****   * Values:
 733:Middlewares/ST/BlueNRG-2/hci/bluenrg1_events_cb.c ****   - 0x01: LIMITED_DISCOVERY_PROC
 734:Middlewares/ST/BlueNRG-2/hci/bluenrg1_events_cb.c ****   - 0x02: GENERAL_DISCOVERY_PROC
 735:Middlewares/ST/BlueNRG-2/hci/bluenrg1_events_cb.c ****   - 0x04: NAME_DISCOVERY_PROC
ARM GAS  C:\Users\zafee\AppData\Local\Temp\ccvOQAyH.s 			page 22


 736:Middlewares/ST/BlueNRG-2/hci/bluenrg1_events_cb.c ****   - 0x08: AUTO_CONNECTION_ESTABLISHMENT_PROC
 737:Middlewares/ST/BlueNRG-2/hci/bluenrg1_events_cb.c ****   - 0x10: GENERAL_CONNECTION_ESTABLISHMENT_PROC
 738:Middlewares/ST/BlueNRG-2/hci/bluenrg1_events_cb.c ****   - 0x20: SELECTIVE_CONNECTION_ESTABLISHMENT_PROC
 739:Middlewares/ST/BlueNRG-2/hci/bluenrg1_events_cb.c ****   - 0x40: DIRECT_CONNECTION_ESTABLISHMENT_PROC
 740:Middlewares/ST/BlueNRG-2/hci/bluenrg1_events_cb.c ****   - 0x80: OBSERVATION_PROC
 741:Middlewares/ST/BlueNRG-2/hci/bluenrg1_events_cb.c ****   * @param Status For standard error codes see Bluetooth specification, Vol. 2, part D. For proprie
 742:Middlewares/ST/BlueNRG-2/hci/bluenrg1_events_cb.c ****   * @param Data_Length Length of Data in octets
 743:Middlewares/ST/BlueNRG-2/hci/bluenrg1_events_cb.c ****   * @param Data Procedure Specific Data:
 744:Middlewares/ST/BlueNRG-2/hci/bluenrg1_events_cb.c **** - For Name Discovery Procedure: the name of the peer device if the procedure completed successfully
 745:Middlewares/ST/BlueNRG-2/hci/bluenrg1_events_cb.c ****   * @retval None
 746:Middlewares/ST/BlueNRG-2/hci/bluenrg1_events_cb.c **** */
 747:Middlewares/ST/BlueNRG-2/hci/bluenrg1_events_cb.c **** WEAK_FUNCTION(void aci_gap_proc_complete_event(uint8_t Procedure_Code,
 748:Middlewares/ST/BlueNRG-2/hci/bluenrg1_events_cb.c ****                                  uint8_t Status,
 749:Middlewares/ST/BlueNRG-2/hci/bluenrg1_events_cb.c ****                                  uint8_t Data_Length,
 750:Middlewares/ST/BlueNRG-2/hci/bluenrg1_events_cb.c ****                                  uint8_t Data[]))
 751:Middlewares/ST/BlueNRG-2/hci/bluenrg1_events_cb.c **** {
 510              		.loc 1 751 1 is_stmt 1 view -0
 511              		.cfi_startproc
 512              		@ args = 0, pretend = 0, frame = 0
 513              		@ frame_needed = 0, uses_anonymous_args = 0
 514              		@ link register save eliminated.
 752:Middlewares/ST/BlueNRG-2/hci/bluenrg1_events_cb.c ****   /* NOTE : This function Should not be modified, when needed,
 753:Middlewares/ST/BlueNRG-2/hci/bluenrg1_events_cb.c ****             the callback could be implemented in the user file
 754:Middlewares/ST/BlueNRG-2/hci/bluenrg1_events_cb.c ****    */
 755:Middlewares/ST/BlueNRG-2/hci/bluenrg1_events_cb.c ****   BLUENRG_PRINTF("aci_gap_proc_complete_event\r\n");
 515              		.loc 1 755 52 view .LVU70
 756:Middlewares/ST/BlueNRG-2/hci/bluenrg1_events_cb.c **** }
 516              		.loc 1 756 1 is_stmt 0 view .LVU71
 517 0000 7047     		bx	lr
 518              		.cfi_endproc
 519              	.LFE153:
 521              		.section	.text.aci_gap_addr_not_resolved_event,"ax",%progbits
 522              		.align	1
 523              		.weak	aci_gap_addr_not_resolved_event
 524              		.syntax unified
 525              		.thumb
 526              		.thumb_func
 528              	aci_gap_addr_not_resolved_event:
 529              	.LVL21:
 530              	.LFB154:
 757:Middlewares/ST/BlueNRG-2/hci/bluenrg1_events_cb.c **** /**
 758:Middlewares/ST/BlueNRG-2/hci/bluenrg1_events_cb.c ****   * @brief This event is sent only by a privacy enabled Peripheral. The event is sent to the
 759:Middlewares/ST/BlueNRG-2/hci/bluenrg1_events_cb.c **** upper layers when the peripheral is unsuccessful in resolving the resolvable
 760:Middlewares/ST/BlueNRG-2/hci/bluenrg1_events_cb.c **** address of the peer device after connecting to it.
 761:Middlewares/ST/BlueNRG-2/hci/bluenrg1_events_cb.c ****   * @param Connection_Handle Connection handle for which the private address could not be
 762:Middlewares/ST/BlueNRG-2/hci/bluenrg1_events_cb.c **** resolved with any of the stored IRK's.
 763:Middlewares/ST/BlueNRG-2/hci/bluenrg1_events_cb.c ****   * @retval None
 764:Middlewares/ST/BlueNRG-2/hci/bluenrg1_events_cb.c **** */
 765:Middlewares/ST/BlueNRG-2/hci/bluenrg1_events_cb.c **** WEAK_FUNCTION(void aci_gap_addr_not_resolved_event(uint16_t Connection_Handle))
 766:Middlewares/ST/BlueNRG-2/hci/bluenrg1_events_cb.c **** {
 531              		.loc 1 766 1 is_stmt 1 view -0
 532              		.cfi_startproc
 533              		@ args = 0, pretend = 0, frame = 0
 534              		@ frame_needed = 0, uses_anonymous_args = 0
 535              		@ link register save eliminated.
 767:Middlewares/ST/BlueNRG-2/hci/bluenrg1_events_cb.c ****   /* NOTE : This function Should not be modified, when needed,
 768:Middlewares/ST/BlueNRG-2/hci/bluenrg1_events_cb.c ****             the callback could be implemented in the user file
ARM GAS  C:\Users\zafee\AppData\Local\Temp\ccvOQAyH.s 			page 23


 769:Middlewares/ST/BlueNRG-2/hci/bluenrg1_events_cb.c ****    */
 770:Middlewares/ST/BlueNRG-2/hci/bluenrg1_events_cb.c ****   BLUENRG_PRINTF("aci_gap_addr_not_resolved_event\r\n");
 536              		.loc 1 770 56 view .LVU73
 771:Middlewares/ST/BlueNRG-2/hci/bluenrg1_events_cb.c **** }
 537              		.loc 1 771 1 is_stmt 0 view .LVU74
 538 0000 7047     		bx	lr
 539              		.cfi_endproc
 540              	.LFE154:
 542              		.section	.text.aci_gap_numeric_comparison_value_event,"ax",%progbits
 543              		.align	1
 544              		.weak	aci_gap_numeric_comparison_value_event
 545              		.syntax unified
 546              		.thumb
 547              		.thumb_func
 549              	aci_gap_numeric_comparison_value_event:
 550              	.LVL22:
 551              	.LFB155:
 772:Middlewares/ST/BlueNRG-2/hci/bluenrg1_events_cb.c **** /**
 773:Middlewares/ST/BlueNRG-2/hci/bluenrg1_events_cb.c ****   * @brief This event is sent only during SC v.4.2 Pairing, when Numeric Comparison Association mod
 774:Middlewares/ST/BlueNRG-2/hci/bluenrg1_events_cb.c **** @ref aci_gap_numeric_comparison_value_confirm_yesno command
 775:Middlewares/ST/BlueNRG-2/hci/bluenrg1_events_cb.c ****   * @param Connection_Handle Connection handle related to the underlying Pairing
 776:Middlewares/ST/BlueNRG-2/hci/bluenrg1_events_cb.c ****   * @param Numeric_Value 
 777:Middlewares/ST/BlueNRG-2/hci/bluenrg1_events_cb.c ****   * @retval None
 778:Middlewares/ST/BlueNRG-2/hci/bluenrg1_events_cb.c **** */
 779:Middlewares/ST/BlueNRG-2/hci/bluenrg1_events_cb.c **** WEAK_FUNCTION(void aci_gap_numeric_comparison_value_event(uint16_t Connection_Handle,
 780:Middlewares/ST/BlueNRG-2/hci/bluenrg1_events_cb.c ****                                             uint32_t Numeric_Value))
 781:Middlewares/ST/BlueNRG-2/hci/bluenrg1_events_cb.c **** {
 552              		.loc 1 781 1 is_stmt 1 view -0
 553              		.cfi_startproc
 554              		@ args = 0, pretend = 0, frame = 0
 555              		@ frame_needed = 0, uses_anonymous_args = 0
 556              		@ link register save eliminated.
 782:Middlewares/ST/BlueNRG-2/hci/bluenrg1_events_cb.c ****   /* NOTE : This function Should not be modified, when needed,
 783:Middlewares/ST/BlueNRG-2/hci/bluenrg1_events_cb.c ****             the callback could be implemented in the user file
 784:Middlewares/ST/BlueNRG-2/hci/bluenrg1_events_cb.c ****    */
 785:Middlewares/ST/BlueNRG-2/hci/bluenrg1_events_cb.c ****   BLUENRG_PRINTF("aci_gap_numeric_comparison_value_event\r\n");
 557              		.loc 1 785 63 view .LVU76
 786:Middlewares/ST/BlueNRG-2/hci/bluenrg1_events_cb.c **** }
 558              		.loc 1 786 1 is_stmt 0 view .LVU77
 559 0000 7047     		bx	lr
 560              		.cfi_endproc
 561              	.LFE155:
 563              		.section	.text.aci_gap_keypress_notification_event,"ax",%progbits
 564              		.align	1
 565              		.weak	aci_gap_keypress_notification_event
 566              		.syntax unified
 567              		.thumb
 568              		.thumb_func
 570              	aci_gap_keypress_notification_event:
 571              	.LVL23:
 572              	.LFB156:
 787:Middlewares/ST/BlueNRG-2/hci/bluenrg1_events_cb.c **** /**
 788:Middlewares/ST/BlueNRG-2/hci/bluenrg1_events_cb.c ****   * @brief This event is sent only during SC v.4.2 Pairing, when Keypress Notifications are support
 789:Middlewares/ST/BlueNRG-2/hci/bluenrg1_events_cb.c ****   * @param Connection_Handle Connection handle related to the underlying Pairing
 790:Middlewares/ST/BlueNRG-2/hci/bluenrg1_events_cb.c ****   * @param Notification_Type Type of Keypress input notified/signaled by peer device (having Keyboa
 791:Middlewares/ST/BlueNRG-2/hci/bluenrg1_events_cb.c ****   * @retval None
 792:Middlewares/ST/BlueNRG-2/hci/bluenrg1_events_cb.c **** */
ARM GAS  C:\Users\zafee\AppData\Local\Temp\ccvOQAyH.s 			page 24


 793:Middlewares/ST/BlueNRG-2/hci/bluenrg1_events_cb.c **** WEAK_FUNCTION(void aci_gap_keypress_notification_event(uint16_t Connection_Handle,
 794:Middlewares/ST/BlueNRG-2/hci/bluenrg1_events_cb.c ****                                          uint8_t Notification_Type))
 795:Middlewares/ST/BlueNRG-2/hci/bluenrg1_events_cb.c **** {
 573              		.loc 1 795 1 is_stmt 1 view -0
 574              		.cfi_startproc
 575              		@ args = 0, pretend = 0, frame = 0
 576              		@ frame_needed = 0, uses_anonymous_args = 0
 577              		@ link register save eliminated.
 796:Middlewares/ST/BlueNRG-2/hci/bluenrg1_events_cb.c ****   /* NOTE : This function Should not be modified, when needed,
 797:Middlewares/ST/BlueNRG-2/hci/bluenrg1_events_cb.c ****             the callback could be implemented in the user file
 798:Middlewares/ST/BlueNRG-2/hci/bluenrg1_events_cb.c ****    */
 799:Middlewares/ST/BlueNRG-2/hci/bluenrg1_events_cb.c ****   BLUENRG_PRINTF("aci_gap_keypress_notification_event\r\n");
 578              		.loc 1 799 60 view .LVU79
 800:Middlewares/ST/BlueNRG-2/hci/bluenrg1_events_cb.c **** }
 579              		.loc 1 800 1 is_stmt 0 view .LVU80
 580 0000 7047     		bx	lr
 581              		.cfi_endproc
 582              	.LFE156:
 584              		.section	.text.aci_gatt_attribute_modified_event,"ax",%progbits
 585              		.align	1
 586              		.weak	aci_gatt_attribute_modified_event
 587              		.syntax unified
 588              		.thumb
 589              		.thumb_func
 591              	aci_gatt_attribute_modified_event:
 592              	.LVL24:
 593              	.LFB157:
 801:Middlewares/ST/BlueNRG-2/hci/bluenrg1_events_cb.c **** 
 802:Middlewares/ST/BlueNRG-2/hci/bluenrg1_events_cb.c **** /**
 803:Middlewares/ST/BlueNRG-2/hci/bluenrg1_events_cb.c ****   * @brief This event is generated to the application by the GATT server when a client modifies any
 804:Middlewares/ST/BlueNRG-2/hci/bluenrg1_events_cb.c **** attribute on the server, as consequence of one of the following GATT procedures:
 805:Middlewares/ST/BlueNRG-2/hci/bluenrg1_events_cb.c **** - write without response
 806:Middlewares/ST/BlueNRG-2/hci/bluenrg1_events_cb.c **** - signed write without response
 807:Middlewares/ST/BlueNRG-2/hci/bluenrg1_events_cb.c **** - write characteristic value
 808:Middlewares/ST/BlueNRG-2/hci/bluenrg1_events_cb.c **** - write long characteristic value
 809:Middlewares/ST/BlueNRG-2/hci/bluenrg1_events_cb.c **** - reliable write.
 810:Middlewares/ST/BlueNRG-2/hci/bluenrg1_events_cb.c ****   * @param Connection_Handle The connection handle which modified the attribute.
 811:Middlewares/ST/BlueNRG-2/hci/bluenrg1_events_cb.c ****   * @param Attr_Handle Handle of the attribute that was modified.
 812:Middlewares/ST/BlueNRG-2/hci/bluenrg1_events_cb.c ****   * @param Offset SoC mode: the offset is never used and it is always 0. Network coprocessor mode: 
 813:Middlewares/ST/BlueNRG-2/hci/bluenrg1_events_cb.c ****    - Bits 0-14: offset of the reported value inside the attribute. 
 814:Middlewares/ST/BlueNRG-2/hci/bluenrg1_events_cb.c ****    - Bit 15: if the entire value of the attribute does not fit inside a single ACI_GATT_ATTRIBUTE_M
 815:Middlewares/ST/BlueNRG-2/hci/bluenrg1_events_cb.c ****   * @param Attr_Data_Length Length of Attr_Data in octets
 816:Middlewares/ST/BlueNRG-2/hci/bluenrg1_events_cb.c ****   * @param Attr_Data The modified value
 817:Middlewares/ST/BlueNRG-2/hci/bluenrg1_events_cb.c ****   * @retval None
 818:Middlewares/ST/BlueNRG-2/hci/bluenrg1_events_cb.c **** */
 819:Middlewares/ST/BlueNRG-2/hci/bluenrg1_events_cb.c **** WEAK_FUNCTION(void aci_gatt_attribute_modified_event(uint16_t Connection_Handle,
 820:Middlewares/ST/BlueNRG-2/hci/bluenrg1_events_cb.c ****                                        uint16_t Attr_Handle,
 821:Middlewares/ST/BlueNRG-2/hci/bluenrg1_events_cb.c ****                                        uint16_t Offset,
 822:Middlewares/ST/BlueNRG-2/hci/bluenrg1_events_cb.c ****                                        uint16_t Attr_Data_Length,
 823:Middlewares/ST/BlueNRG-2/hci/bluenrg1_events_cb.c ****                                        uint8_t Attr_Data[]))
 824:Middlewares/ST/BlueNRG-2/hci/bluenrg1_events_cb.c **** {
 594              		.loc 1 824 1 is_stmt 1 view -0
 595              		.cfi_startproc
 596              		@ args = 4, pretend = 0, frame = 0
 597              		@ frame_needed = 0, uses_anonymous_args = 0
 598              		@ link register save eliminated.
 825:Middlewares/ST/BlueNRG-2/hci/bluenrg1_events_cb.c ****   /* NOTE : This function Should not be modified, when needed,
ARM GAS  C:\Users\zafee\AppData\Local\Temp\ccvOQAyH.s 			page 25


 826:Middlewares/ST/BlueNRG-2/hci/bluenrg1_events_cb.c ****             the callback could be implemented in the user file
 827:Middlewares/ST/BlueNRG-2/hci/bluenrg1_events_cb.c ****    */
 828:Middlewares/ST/BlueNRG-2/hci/bluenrg1_events_cb.c ****   BLUENRG_PRINTF("aci_gatt_attribute_modified_event\r\n");
 599              		.loc 1 828 58 view .LVU82
 829:Middlewares/ST/BlueNRG-2/hci/bluenrg1_events_cb.c **** }
 600              		.loc 1 829 1 is_stmt 0 view .LVU83
 601 0000 7047     		bx	lr
 602              		.cfi_endproc
 603              	.LFE157:
 605              		.section	.text.aci_gatt_proc_timeout_event,"ax",%progbits
 606              		.align	1
 607              		.weak	aci_gatt_proc_timeout_event
 608              		.syntax unified
 609              		.thumb
 610              		.thumb_func
 612              	aci_gatt_proc_timeout_event:
 613              	.LVL25:
 614              	.LFB158:
 830:Middlewares/ST/BlueNRG-2/hci/bluenrg1_events_cb.c **** /**
 831:Middlewares/ST/BlueNRG-2/hci/bluenrg1_events_cb.c ****   * @brief This event is generated by the client/server to the application on a GATT timeout (30
 832:Middlewares/ST/BlueNRG-2/hci/bluenrg1_events_cb.c **** seconds). This is a critical event that should not happen during normal operating conditions. It is
 833:Middlewares/ST/BlueNRG-2/hci/bluenrg1_events_cb.c ****   * @param Connection_Handle Connection handle on which the GATT procedure has timed out
 834:Middlewares/ST/BlueNRG-2/hci/bluenrg1_events_cb.c ****   * @retval None
 835:Middlewares/ST/BlueNRG-2/hci/bluenrg1_events_cb.c **** */
 836:Middlewares/ST/BlueNRG-2/hci/bluenrg1_events_cb.c **** WEAK_FUNCTION(void aci_gatt_proc_timeout_event(uint16_t Connection_Handle))
 837:Middlewares/ST/BlueNRG-2/hci/bluenrg1_events_cb.c **** {
 615              		.loc 1 837 1 is_stmt 1 view -0
 616              		.cfi_startproc
 617              		@ args = 0, pretend = 0, frame = 0
 618              		@ frame_needed = 0, uses_anonymous_args = 0
 619              		@ link register save eliminated.
 838:Middlewares/ST/BlueNRG-2/hci/bluenrg1_events_cb.c ****   /* NOTE : This function Should not be modified, when needed,
 839:Middlewares/ST/BlueNRG-2/hci/bluenrg1_events_cb.c ****             the callback could be implemented in the user file
 840:Middlewares/ST/BlueNRG-2/hci/bluenrg1_events_cb.c ****    */
 841:Middlewares/ST/BlueNRG-2/hci/bluenrg1_events_cb.c ****   BLUENRG_PRINTF("aci_gatt_proc_timeout_event\r\n");
 620              		.loc 1 841 52 view .LVU85
 842:Middlewares/ST/BlueNRG-2/hci/bluenrg1_events_cb.c **** }
 621              		.loc 1 842 1 is_stmt 0 view .LVU86
 622 0000 7047     		bx	lr
 623              		.cfi_endproc
 624              	.LFE158:
 626              		.section	.text.aci_att_exchange_mtu_resp_event,"ax",%progbits
 627              		.align	1
 628              		.weak	aci_att_exchange_mtu_resp_event
 629              		.syntax unified
 630              		.thumb
 631              		.thumb_func
 633              	aci_att_exchange_mtu_resp_event:
 634              	.LVL26:
 635              	.LFB159:
 843:Middlewares/ST/BlueNRG-2/hci/bluenrg1_events_cb.c **** /**
 844:Middlewares/ST/BlueNRG-2/hci/bluenrg1_events_cb.c ****   * @brief This event is generated in response to an Exchange MTU request. See
 845:Middlewares/ST/BlueNRG-2/hci/bluenrg1_events_cb.c **** @ref aci_gatt_exchange_config.
 846:Middlewares/ST/BlueNRG-2/hci/bluenrg1_events_cb.c ****   * @param Connection_Handle Connection handle related to the response
 847:Middlewares/ST/BlueNRG-2/hci/bluenrg1_events_cb.c ****   * @param Server_RX_MTU ATT_MTU value agreed between server and client
 848:Middlewares/ST/BlueNRG-2/hci/bluenrg1_events_cb.c ****   * @retval None
 849:Middlewares/ST/BlueNRG-2/hci/bluenrg1_events_cb.c **** */
ARM GAS  C:\Users\zafee\AppData\Local\Temp\ccvOQAyH.s 			page 26


 850:Middlewares/ST/BlueNRG-2/hci/bluenrg1_events_cb.c **** WEAK_FUNCTION(void aci_att_exchange_mtu_resp_event(uint16_t Connection_Handle,
 851:Middlewares/ST/BlueNRG-2/hci/bluenrg1_events_cb.c ****                                      uint16_t Server_RX_MTU))
 852:Middlewares/ST/BlueNRG-2/hci/bluenrg1_events_cb.c **** {
 636              		.loc 1 852 1 is_stmt 1 view -0
 637              		.cfi_startproc
 638              		@ args = 0, pretend = 0, frame = 0
 639              		@ frame_needed = 0, uses_anonymous_args = 0
 640              		@ link register save eliminated.
 853:Middlewares/ST/BlueNRG-2/hci/bluenrg1_events_cb.c ****   /* NOTE : This function Should not be modified, when needed,
 854:Middlewares/ST/BlueNRG-2/hci/bluenrg1_events_cb.c ****             the callback could be implemented in the user file
 855:Middlewares/ST/BlueNRG-2/hci/bluenrg1_events_cb.c ****    */
 856:Middlewares/ST/BlueNRG-2/hci/bluenrg1_events_cb.c ****   BLUENRG_PRINTF("aci_att_exchange_mtu_resp_event\r\n");
 641              		.loc 1 856 56 view .LVU88
 857:Middlewares/ST/BlueNRG-2/hci/bluenrg1_events_cb.c **** }
 642              		.loc 1 857 1 is_stmt 0 view .LVU89
 643 0000 7047     		bx	lr
 644              		.cfi_endproc
 645              	.LFE159:
 647              		.section	.text.aci_att_find_info_resp_event,"ax",%progbits
 648              		.align	1
 649              		.weak	aci_att_find_info_resp_event
 650              		.syntax unified
 651              		.thumb
 652              		.thumb_func
 654              	aci_att_find_info_resp_event:
 655              	.LVL27:
 656              	.LFB160:
 858:Middlewares/ST/BlueNRG-2/hci/bluenrg1_events_cb.c **** /**
 859:Middlewares/ST/BlueNRG-2/hci/bluenrg1_events_cb.c ****   * @brief This event is generated in response to a Find Information Request. See
 860:Middlewares/ST/BlueNRG-2/hci/bluenrg1_events_cb.c **** @ref aci_att_find_info_req and Find Information Response in Bluetooth Core v4.1
 861:Middlewares/ST/BlueNRG-2/hci/bluenrg1_events_cb.c **** spec.
 862:Middlewares/ST/BlueNRG-2/hci/bluenrg1_events_cb.c ****   * @param Connection_Handle Connection handle related to the response
 863:Middlewares/ST/BlueNRG-2/hci/bluenrg1_events_cb.c ****   * @param Format Format of the hanndle-uuid pairs
 864:Middlewares/ST/BlueNRG-2/hci/bluenrg1_events_cb.c ****   * @param Event_Data_Length Length of Handle_UUID_Pair in octets
 865:Middlewares/ST/BlueNRG-2/hci/bluenrg1_events_cb.c ****   * @param Handle_UUID_Pair A sequence of handle-uuid pairs. if format=1, each pair is:[2 octets fo
 866:Middlewares/ST/BlueNRG-2/hci/bluenrg1_events_cb.c ****   * @retval None
 867:Middlewares/ST/BlueNRG-2/hci/bluenrg1_events_cb.c **** */
 868:Middlewares/ST/BlueNRG-2/hci/bluenrg1_events_cb.c **** WEAK_FUNCTION(void aci_att_find_info_resp_event(uint16_t Connection_Handle,
 869:Middlewares/ST/BlueNRG-2/hci/bluenrg1_events_cb.c ****                                   uint8_t Format,
 870:Middlewares/ST/BlueNRG-2/hci/bluenrg1_events_cb.c ****                                   uint8_t Event_Data_Length,
 871:Middlewares/ST/BlueNRG-2/hci/bluenrg1_events_cb.c ****                                   uint8_t Handle_UUID_Pair[]))
 872:Middlewares/ST/BlueNRG-2/hci/bluenrg1_events_cb.c **** {
 657              		.loc 1 872 1 is_stmt 1 view -0
 658              		.cfi_startproc
 659              		@ args = 0, pretend = 0, frame = 0
 660              		@ frame_needed = 0, uses_anonymous_args = 0
 661              		@ link register save eliminated.
 873:Middlewares/ST/BlueNRG-2/hci/bluenrg1_events_cb.c ****   /* NOTE : This function Should not be modified, when needed,
 874:Middlewares/ST/BlueNRG-2/hci/bluenrg1_events_cb.c ****             the callback could be implemented in the user file
 875:Middlewares/ST/BlueNRG-2/hci/bluenrg1_events_cb.c ****    */
 876:Middlewares/ST/BlueNRG-2/hci/bluenrg1_events_cb.c ****   BLUENRG_PRINTF("aci_att_find_info_resp_event\r\n");
 662              		.loc 1 876 53 view .LVU91
 877:Middlewares/ST/BlueNRG-2/hci/bluenrg1_events_cb.c **** }
 663              		.loc 1 877 1 is_stmt 0 view .LVU92
 664 0000 7047     		bx	lr
 665              		.cfi_endproc
 666              	.LFE160:
ARM GAS  C:\Users\zafee\AppData\Local\Temp\ccvOQAyH.s 			page 27


 668              		.section	.text.aci_att_find_by_type_value_resp_event,"ax",%progbits
 669              		.align	1
 670              		.weak	aci_att_find_by_type_value_resp_event
 671              		.syntax unified
 672              		.thumb
 673              		.thumb_func
 675              	aci_att_find_by_type_value_resp_event:
 676              	.LVL28:
 677              	.LFB161:
 878:Middlewares/ST/BlueNRG-2/hci/bluenrg1_events_cb.c **** /**
 879:Middlewares/ST/BlueNRG-2/hci/bluenrg1_events_cb.c ****   * @brief This event is generated in response to a @ref aci_att_find_by_type_value_req
 880:Middlewares/ST/BlueNRG-2/hci/bluenrg1_events_cb.c ****   * @param Connection_Handle Connection handle related to the response
 881:Middlewares/ST/BlueNRG-2/hci/bluenrg1_events_cb.c ****   * @param Num_of_Handle_Pair Number of attribute, group handle pairs
 882:Middlewares/ST/BlueNRG-2/hci/bluenrg1_events_cb.c ****   * @param Attribute_Group_Handle_Pair See @ref Attribute_Group_Handle_Pair_t
 883:Middlewares/ST/BlueNRG-2/hci/bluenrg1_events_cb.c ****   * @retval None
 884:Middlewares/ST/BlueNRG-2/hci/bluenrg1_events_cb.c **** */
 885:Middlewares/ST/BlueNRG-2/hci/bluenrg1_events_cb.c **** WEAK_FUNCTION(void aci_att_find_by_type_value_resp_event(uint16_t Connection_Handle,
 886:Middlewares/ST/BlueNRG-2/hci/bluenrg1_events_cb.c ****                                            uint8_t Num_of_Handle_Pair,
 887:Middlewares/ST/BlueNRG-2/hci/bluenrg1_events_cb.c ****                                            Attribute_Group_Handle_Pair_t Attribute_Group_Handle_Pai
 888:Middlewares/ST/BlueNRG-2/hci/bluenrg1_events_cb.c **** {
 678              		.loc 1 888 1 is_stmt 1 view -0
 679              		.cfi_startproc
 680              		@ args = 0, pretend = 0, frame = 0
 681              		@ frame_needed = 0, uses_anonymous_args = 0
 682              		@ link register save eliminated.
 889:Middlewares/ST/BlueNRG-2/hci/bluenrg1_events_cb.c ****   /* NOTE : This function Should not be modified, when needed,
 890:Middlewares/ST/BlueNRG-2/hci/bluenrg1_events_cb.c ****             the callback could be implemented in the user file
 891:Middlewares/ST/BlueNRG-2/hci/bluenrg1_events_cb.c ****    */
 892:Middlewares/ST/BlueNRG-2/hci/bluenrg1_events_cb.c ****   BLUENRG_PRINTF("aci_att_find_by_type_value_resp_event\r\n");
 683              		.loc 1 892 62 view .LVU94
 893:Middlewares/ST/BlueNRG-2/hci/bluenrg1_events_cb.c **** }
 684              		.loc 1 893 1 is_stmt 0 view .LVU95
 685 0000 7047     		bx	lr
 686              		.cfi_endproc
 687              	.LFE161:
 689              		.section	.text.aci_att_read_by_type_resp_event,"ax",%progbits
 690              		.align	1
 691              		.weak	aci_att_read_by_type_resp_event
 692              		.syntax unified
 693              		.thumb
 694              		.thumb_func
 696              	aci_att_read_by_type_resp_event:
 697              	.LVL29:
 698              	.LFB162:
 894:Middlewares/ST/BlueNRG-2/hci/bluenrg1_events_cb.c **** /**
 895:Middlewares/ST/BlueNRG-2/hci/bluenrg1_events_cb.c ****   * @brief This event is generated in response to a @ref aci_att_read_by_type_req. See
 896:Middlewares/ST/BlueNRG-2/hci/bluenrg1_events_cb.c **** @ref aci_gatt_find_included_services and @ref aci_gatt_disc_all_char_desc.
 897:Middlewares/ST/BlueNRG-2/hci/bluenrg1_events_cb.c ****   * @param Connection_Handle Connection handle related to the response
 898:Middlewares/ST/BlueNRG-2/hci/bluenrg1_events_cb.c ****   * @param Handle_Value_Pair_Length The size of each attribute handle-value pair
 899:Middlewares/ST/BlueNRG-2/hci/bluenrg1_events_cb.c ****   * @param Data_Length Length of Handle_Value_Pair_Data in octets
 900:Middlewares/ST/BlueNRG-2/hci/bluenrg1_events_cb.c ****   * @param Handle_Value_Pair_Data Attribute Data List as defined in Bluetooth Core v4.1 spec. A seq
 901:Middlewares/ST/BlueNRG-2/hci/bluenrg1_events_cb.c ****   * @retval None
 902:Middlewares/ST/BlueNRG-2/hci/bluenrg1_events_cb.c **** */
 903:Middlewares/ST/BlueNRG-2/hci/bluenrg1_events_cb.c **** WEAK_FUNCTION(void aci_att_read_by_type_resp_event(uint16_t Connection_Handle,
 904:Middlewares/ST/BlueNRG-2/hci/bluenrg1_events_cb.c ****                                      uint8_t Handle_Value_Pair_Length,
 905:Middlewares/ST/BlueNRG-2/hci/bluenrg1_events_cb.c ****                                      uint8_t Data_Length,
 906:Middlewares/ST/BlueNRG-2/hci/bluenrg1_events_cb.c ****                                      uint8_t Handle_Value_Pair_Data[]))
ARM GAS  C:\Users\zafee\AppData\Local\Temp\ccvOQAyH.s 			page 28


 907:Middlewares/ST/BlueNRG-2/hci/bluenrg1_events_cb.c **** {
 699              		.loc 1 907 1 is_stmt 1 view -0
 700              		.cfi_startproc
 701              		@ args = 0, pretend = 0, frame = 0
 702              		@ frame_needed = 0, uses_anonymous_args = 0
 703              		@ link register save eliminated.
 908:Middlewares/ST/BlueNRG-2/hci/bluenrg1_events_cb.c ****   /* NOTE : This function Should not be modified, when needed,
 909:Middlewares/ST/BlueNRG-2/hci/bluenrg1_events_cb.c ****             the callback could be implemented in the user file
 910:Middlewares/ST/BlueNRG-2/hci/bluenrg1_events_cb.c ****    */
 911:Middlewares/ST/BlueNRG-2/hci/bluenrg1_events_cb.c ****   BLUENRG_PRINTF("aci_att_read_by_type_resp_event\r\n");
 704              		.loc 1 911 56 view .LVU97
 912:Middlewares/ST/BlueNRG-2/hci/bluenrg1_events_cb.c **** }
 705              		.loc 1 912 1 is_stmt 0 view .LVU98
 706 0000 7047     		bx	lr
 707              		.cfi_endproc
 708              	.LFE162:
 710              		.section	.text.aci_att_read_resp_event,"ax",%progbits
 711              		.align	1
 712              		.weak	aci_att_read_resp_event
 713              		.syntax unified
 714              		.thumb
 715              		.thumb_func
 717              	aci_att_read_resp_event:
 718              	.LVL30:
 719              	.LFB163:
 913:Middlewares/ST/BlueNRG-2/hci/bluenrg1_events_cb.c **** /**
 914:Middlewares/ST/BlueNRG-2/hci/bluenrg1_events_cb.c ****   * @brief This event is generated in response to a Read Request. See @ref aci_gatt_read_char_value
 915:Middlewares/ST/BlueNRG-2/hci/bluenrg1_events_cb.c ****   * @param Connection_Handle Connection handle related to the response
 916:Middlewares/ST/BlueNRG-2/hci/bluenrg1_events_cb.c ****   * @param Event_Data_Length Length of following data
 917:Middlewares/ST/BlueNRG-2/hci/bluenrg1_events_cb.c ****   * @param Attribute_Value The value of the attribute.
 918:Middlewares/ST/BlueNRG-2/hci/bluenrg1_events_cb.c ****   * @retval None
 919:Middlewares/ST/BlueNRG-2/hci/bluenrg1_events_cb.c **** */
 920:Middlewares/ST/BlueNRG-2/hci/bluenrg1_events_cb.c **** WEAK_FUNCTION(void aci_att_read_resp_event(uint16_t Connection_Handle,
 921:Middlewares/ST/BlueNRG-2/hci/bluenrg1_events_cb.c ****                              uint8_t Event_Data_Length,
 922:Middlewares/ST/BlueNRG-2/hci/bluenrg1_events_cb.c ****                              uint8_t Attribute_Value[]))
 923:Middlewares/ST/BlueNRG-2/hci/bluenrg1_events_cb.c **** {
 720              		.loc 1 923 1 is_stmt 1 view -0
 721              		.cfi_startproc
 722              		@ args = 0, pretend = 0, frame = 0
 723              		@ frame_needed = 0, uses_anonymous_args = 0
 724              		@ link register save eliminated.
 924:Middlewares/ST/BlueNRG-2/hci/bluenrg1_events_cb.c ****   /* NOTE : This function Should not be modified, when needed,
 925:Middlewares/ST/BlueNRG-2/hci/bluenrg1_events_cb.c ****             the callback could be implemented in the user file
 926:Middlewares/ST/BlueNRG-2/hci/bluenrg1_events_cb.c ****    */
 927:Middlewares/ST/BlueNRG-2/hci/bluenrg1_events_cb.c ****   BLUENRG_PRINTF("aci_att_read_resp_event\r\n");
 725              		.loc 1 927 48 view .LVU100
 928:Middlewares/ST/BlueNRG-2/hci/bluenrg1_events_cb.c **** }
 726              		.loc 1 928 1 is_stmt 0 view .LVU101
 727 0000 7047     		bx	lr
 728              		.cfi_endproc
 729              	.LFE163:
 731              		.section	.text.aci_att_read_blob_resp_event,"ax",%progbits
 732              		.align	1
 733              		.weak	aci_att_read_blob_resp_event
 734              		.syntax unified
 735              		.thumb
 736              		.thumb_func
ARM GAS  C:\Users\zafee\AppData\Local\Temp\ccvOQAyH.s 			page 29


 738              	aci_att_read_blob_resp_event:
 739              	.LVL31:
 740              	.LFB164:
 929:Middlewares/ST/BlueNRG-2/hci/bluenrg1_events_cb.c **** /**
 930:Middlewares/ST/BlueNRG-2/hci/bluenrg1_events_cb.c ****   * @brief This event can be generated during a read long characteristic value procedure. See @ref 
 931:Middlewares/ST/BlueNRG-2/hci/bluenrg1_events_cb.c ****   * @param Connection_Handle Connection handle related to the response
 932:Middlewares/ST/BlueNRG-2/hci/bluenrg1_events_cb.c ****   * @param Event_Data_Length Length of following data
 933:Middlewares/ST/BlueNRG-2/hci/bluenrg1_events_cb.c ****   * @param Attribute_Value Part of the attribute value.
 934:Middlewares/ST/BlueNRG-2/hci/bluenrg1_events_cb.c ****   * @retval None
 935:Middlewares/ST/BlueNRG-2/hci/bluenrg1_events_cb.c **** */
 936:Middlewares/ST/BlueNRG-2/hci/bluenrg1_events_cb.c **** WEAK_FUNCTION(void aci_att_read_blob_resp_event(uint16_t Connection_Handle,
 937:Middlewares/ST/BlueNRG-2/hci/bluenrg1_events_cb.c ****                                   uint8_t Event_Data_Length,
 938:Middlewares/ST/BlueNRG-2/hci/bluenrg1_events_cb.c ****                                   uint8_t Attribute_Value[]))
 939:Middlewares/ST/BlueNRG-2/hci/bluenrg1_events_cb.c **** {
 741              		.loc 1 939 1 is_stmt 1 view -0
 742              		.cfi_startproc
 743              		@ args = 0, pretend = 0, frame = 0
 744              		@ frame_needed = 0, uses_anonymous_args = 0
 745              		@ link register save eliminated.
 940:Middlewares/ST/BlueNRG-2/hci/bluenrg1_events_cb.c ****   /* NOTE : This function Should not be modified, when needed,
 941:Middlewares/ST/BlueNRG-2/hci/bluenrg1_events_cb.c ****             the callback could be implemented in the user file
 942:Middlewares/ST/BlueNRG-2/hci/bluenrg1_events_cb.c ****    */
 943:Middlewares/ST/BlueNRG-2/hci/bluenrg1_events_cb.c ****   BLUENRG_PRINTF("aci_att_read_blob_resp_event\r\n");
 746              		.loc 1 943 53 view .LVU103
 944:Middlewares/ST/BlueNRG-2/hci/bluenrg1_events_cb.c **** }
 747              		.loc 1 944 1 is_stmt 0 view .LVU104
 748 0000 7047     		bx	lr
 749              		.cfi_endproc
 750              	.LFE164:
 752              		.section	.text.aci_att_read_multiple_resp_event,"ax",%progbits
 753              		.align	1
 754              		.weak	aci_att_read_multiple_resp_event
 755              		.syntax unified
 756              		.thumb
 757              		.thumb_func
 759              	aci_att_read_multiple_resp_event:
 760              	.LVL32:
 761              	.LFB165:
 945:Middlewares/ST/BlueNRG-2/hci/bluenrg1_events_cb.c **** /**
 946:Middlewares/ST/BlueNRG-2/hci/bluenrg1_events_cb.c ****   * @brief This event is generated in response to a Read Multiple Request.
 947:Middlewares/ST/BlueNRG-2/hci/bluenrg1_events_cb.c ****   * @param Connection_Handle Connection handle related to the response
 948:Middlewares/ST/BlueNRG-2/hci/bluenrg1_events_cb.c ****   * @param Event_Data_Length Length of following data
 949:Middlewares/ST/BlueNRG-2/hci/bluenrg1_events_cb.c ****   * @param Set_Of_Values A set of two or more values.
 950:Middlewares/ST/BlueNRG-2/hci/bluenrg1_events_cb.c **** A concatenation of attribute values for each of the attribute handles in the request in the order t
 951:Middlewares/ST/BlueNRG-2/hci/bluenrg1_events_cb.c ****   * @retval None
 952:Middlewares/ST/BlueNRG-2/hci/bluenrg1_events_cb.c **** */
 953:Middlewares/ST/BlueNRG-2/hci/bluenrg1_events_cb.c **** WEAK_FUNCTION(void aci_att_read_multiple_resp_event(uint16_t Connection_Handle,
 954:Middlewares/ST/BlueNRG-2/hci/bluenrg1_events_cb.c ****                                       uint8_t Event_Data_Length,
 955:Middlewares/ST/BlueNRG-2/hci/bluenrg1_events_cb.c ****                                       uint8_t Set_Of_Values[]))
 956:Middlewares/ST/BlueNRG-2/hci/bluenrg1_events_cb.c **** {
 762              		.loc 1 956 1 is_stmt 1 view -0
 763              		.cfi_startproc
 764              		@ args = 0, pretend = 0, frame = 0
 765              		@ frame_needed = 0, uses_anonymous_args = 0
 766              		@ link register save eliminated.
 957:Middlewares/ST/BlueNRG-2/hci/bluenrg1_events_cb.c ****   /* NOTE : This function Should not be modified, when needed,
 958:Middlewares/ST/BlueNRG-2/hci/bluenrg1_events_cb.c ****             the callback could be implemented in the user file
ARM GAS  C:\Users\zafee\AppData\Local\Temp\ccvOQAyH.s 			page 30


 959:Middlewares/ST/BlueNRG-2/hci/bluenrg1_events_cb.c ****    */
 960:Middlewares/ST/BlueNRG-2/hci/bluenrg1_events_cb.c ****   BLUENRG_PRINTF("aci_att_read_multiple_resp_event\r\n");
 767              		.loc 1 960 57 view .LVU106
 961:Middlewares/ST/BlueNRG-2/hci/bluenrg1_events_cb.c **** }
 768              		.loc 1 961 1 is_stmt 0 view .LVU107
 769 0000 7047     		bx	lr
 770              		.cfi_endproc
 771              	.LFE165:
 773              		.section	.text.aci_att_read_by_group_type_resp_event,"ax",%progbits
 774              		.align	1
 775              		.weak	aci_att_read_by_group_type_resp_event
 776              		.syntax unified
 777              		.thumb
 778              		.thumb_func
 780              	aci_att_read_by_group_type_resp_event:
 781              	.LVL33:
 782              	.LFB166:
 962:Middlewares/ST/BlueNRG-2/hci/bluenrg1_events_cb.c **** /**
 963:Middlewares/ST/BlueNRG-2/hci/bluenrg1_events_cb.c ****   * @brief This event is generated in response to a Read By Group Type Request. See
 964:Middlewares/ST/BlueNRG-2/hci/bluenrg1_events_cb.c **** @ref aci_gatt_disc_all_primary_services.
 965:Middlewares/ST/BlueNRG-2/hci/bluenrg1_events_cb.c ****   * @param Connection_Handle Connection handle related to the response
 966:Middlewares/ST/BlueNRG-2/hci/bluenrg1_events_cb.c ****   * @param Attribute_Data_Length The size of each attribute data
 967:Middlewares/ST/BlueNRG-2/hci/bluenrg1_events_cb.c ****   * @param Data_Length Length of Attribute_Data_List in octets
 968:Middlewares/ST/BlueNRG-2/hci/bluenrg1_events_cb.c ****   * @param Attribute_Data_List Attribute Data List as defined in Bluetooth Core v4.1 spec. A sequen
 969:Middlewares/ST/BlueNRG-2/hci/bluenrg1_events_cb.c ****   * @retval None
 970:Middlewares/ST/BlueNRG-2/hci/bluenrg1_events_cb.c **** */
 971:Middlewares/ST/BlueNRG-2/hci/bluenrg1_events_cb.c **** WEAK_FUNCTION(void aci_att_read_by_group_type_resp_event(uint16_t Connection_Handle,
 972:Middlewares/ST/BlueNRG-2/hci/bluenrg1_events_cb.c ****                                            uint8_t Attribute_Data_Length,
 973:Middlewares/ST/BlueNRG-2/hci/bluenrg1_events_cb.c ****                                            uint8_t Data_Length,
 974:Middlewares/ST/BlueNRG-2/hci/bluenrg1_events_cb.c ****                                            uint8_t Attribute_Data_List[]))
 975:Middlewares/ST/BlueNRG-2/hci/bluenrg1_events_cb.c **** {
 783              		.loc 1 975 1 is_stmt 1 view -0
 784              		.cfi_startproc
 785              		@ args = 0, pretend = 0, frame = 0
 786              		@ frame_needed = 0, uses_anonymous_args = 0
 787              		@ link register save eliminated.
 976:Middlewares/ST/BlueNRG-2/hci/bluenrg1_events_cb.c ****   /* NOTE : This function Should not be modified, when needed,
 977:Middlewares/ST/BlueNRG-2/hci/bluenrg1_events_cb.c ****             the callback could be implemented in the user file
 978:Middlewares/ST/BlueNRG-2/hci/bluenrg1_events_cb.c ****    */
 979:Middlewares/ST/BlueNRG-2/hci/bluenrg1_events_cb.c ****   BLUENRG_PRINTF("aci_att_read_by_group_type_resp_event\r\n");
 788              		.loc 1 979 62 view .LVU109
 980:Middlewares/ST/BlueNRG-2/hci/bluenrg1_events_cb.c **** }
 789              		.loc 1 980 1 is_stmt 0 view .LVU110
 790 0000 7047     		bx	lr
 791              		.cfi_endproc
 792              	.LFE166:
 794              		.section	.text.aci_att_prepare_write_resp_event,"ax",%progbits
 795              		.align	1
 796              		.weak	aci_att_prepare_write_resp_event
 797              		.syntax unified
 798              		.thumb
 799              		.thumb_func
 801              	aci_att_prepare_write_resp_event:
 802              	.LVL34:
 803              	.LFB167:
 981:Middlewares/ST/BlueNRG-2/hci/bluenrg1_events_cb.c **** /**
 982:Middlewares/ST/BlueNRG-2/hci/bluenrg1_events_cb.c ****   * @brief This event is generated in response to a @ref aci_att_prepare_write_req.
ARM GAS  C:\Users\zafee\AppData\Local\Temp\ccvOQAyH.s 			page 31


 983:Middlewares/ST/BlueNRG-2/hci/bluenrg1_events_cb.c ****   * @param Connection_Handle Connection handle related to the response
 984:Middlewares/ST/BlueNRG-2/hci/bluenrg1_events_cb.c ****   * @param Attribute_Handle The handle of the attribute to be written
 985:Middlewares/ST/BlueNRG-2/hci/bluenrg1_events_cb.c ****   * @param Offset The offset of the first octet to be written.
 986:Middlewares/ST/BlueNRG-2/hci/bluenrg1_events_cb.c ****   * @param Part_Attribute_Value_Length Length of Part_Attribute_Value in octets
 987:Middlewares/ST/BlueNRG-2/hci/bluenrg1_events_cb.c ****   * @param Part_Attribute_Value The value of the attribute to be written
 988:Middlewares/ST/BlueNRG-2/hci/bluenrg1_events_cb.c ****   * @retval None
 989:Middlewares/ST/BlueNRG-2/hci/bluenrg1_events_cb.c **** */
 990:Middlewares/ST/BlueNRG-2/hci/bluenrg1_events_cb.c **** WEAK_FUNCTION(void aci_att_prepare_write_resp_event(uint16_t Connection_Handle,
 991:Middlewares/ST/BlueNRG-2/hci/bluenrg1_events_cb.c ****                                       uint16_t Attribute_Handle,
 992:Middlewares/ST/BlueNRG-2/hci/bluenrg1_events_cb.c ****                                       uint16_t Offset,
 993:Middlewares/ST/BlueNRG-2/hci/bluenrg1_events_cb.c ****                                       uint8_t Part_Attribute_Value_Length,
 994:Middlewares/ST/BlueNRG-2/hci/bluenrg1_events_cb.c ****                                       uint8_t Part_Attribute_Value[]))
 995:Middlewares/ST/BlueNRG-2/hci/bluenrg1_events_cb.c **** {
 804              		.loc 1 995 1 is_stmt 1 view -0
 805              		.cfi_startproc
 806              		@ args = 4, pretend = 0, frame = 0
 807              		@ frame_needed = 0, uses_anonymous_args = 0
 808              		@ link register save eliminated.
 996:Middlewares/ST/BlueNRG-2/hci/bluenrg1_events_cb.c ****   /* NOTE : This function Should not be modified, when needed,
 997:Middlewares/ST/BlueNRG-2/hci/bluenrg1_events_cb.c ****             the callback could be implemented in the user file
 998:Middlewares/ST/BlueNRG-2/hci/bluenrg1_events_cb.c ****    */
 999:Middlewares/ST/BlueNRG-2/hci/bluenrg1_events_cb.c ****   BLUENRG_PRINTF("aci_att_prepare_write_resp_event\r\n");
 809              		.loc 1 999 57 view .LVU112
1000:Middlewares/ST/BlueNRG-2/hci/bluenrg1_events_cb.c **** }
 810              		.loc 1 1000 1 is_stmt 0 view .LVU113
 811 0000 7047     		bx	lr
 812              		.cfi_endproc
 813              	.LFE167:
 815              		.section	.text.aci_att_exec_write_resp_event,"ax",%progbits
 816              		.align	1
 817              		.weak	aci_att_exec_write_resp_event
 818              		.syntax unified
 819              		.thumb
 820              		.thumb_func
 822              	aci_att_exec_write_resp_event:
 823              	.LVL35:
 824              	.LFB168:
1001:Middlewares/ST/BlueNRG-2/hci/bluenrg1_events_cb.c **** /**
1002:Middlewares/ST/BlueNRG-2/hci/bluenrg1_events_cb.c ****   * @brief This event is generated in response to an Execute Write Request.
1003:Middlewares/ST/BlueNRG-2/hci/bluenrg1_events_cb.c ****   * @param Connection_Handle Connection handle related to the response
1004:Middlewares/ST/BlueNRG-2/hci/bluenrg1_events_cb.c ****   * @retval None
1005:Middlewares/ST/BlueNRG-2/hci/bluenrg1_events_cb.c **** */
1006:Middlewares/ST/BlueNRG-2/hci/bluenrg1_events_cb.c **** WEAK_FUNCTION(void aci_att_exec_write_resp_event(uint16_t Connection_Handle))
1007:Middlewares/ST/BlueNRG-2/hci/bluenrg1_events_cb.c **** {
 825              		.loc 1 1007 1 is_stmt 1 view -0
 826              		.cfi_startproc
 827              		@ args = 0, pretend = 0, frame = 0
 828              		@ frame_needed = 0, uses_anonymous_args = 0
 829              		@ link register save eliminated.
1008:Middlewares/ST/BlueNRG-2/hci/bluenrg1_events_cb.c ****   /* NOTE : This function Should not be modified, when needed,
1009:Middlewares/ST/BlueNRG-2/hci/bluenrg1_events_cb.c ****             the callback could be implemented in the user file
1010:Middlewares/ST/BlueNRG-2/hci/bluenrg1_events_cb.c ****    */
1011:Middlewares/ST/BlueNRG-2/hci/bluenrg1_events_cb.c ****   BLUENRG_PRINTF("aci_att_exec_write_resp_event\r\n");
 830              		.loc 1 1011 54 view .LVU115
1012:Middlewares/ST/BlueNRG-2/hci/bluenrg1_events_cb.c **** }
 831              		.loc 1 1012 1 is_stmt 0 view .LVU116
 832 0000 7047     		bx	lr
ARM GAS  C:\Users\zafee\AppData\Local\Temp\ccvOQAyH.s 			page 32


 833              		.cfi_endproc
 834              	.LFE168:
 836              		.section	.text.aci_gatt_indication_event,"ax",%progbits
 837              		.align	1
 838              		.weak	aci_gatt_indication_event
 839              		.syntax unified
 840              		.thumb
 841              		.thumb_func
 843              	aci_gatt_indication_event:
 844              	.LVL36:
 845              	.LFB169:
1013:Middlewares/ST/BlueNRG-2/hci/bluenrg1_events_cb.c **** /**
1014:Middlewares/ST/BlueNRG-2/hci/bluenrg1_events_cb.c ****   * @brief This event is generated when an indication is received from the server.
1015:Middlewares/ST/BlueNRG-2/hci/bluenrg1_events_cb.c ****   * @param Connection_Handle Connection handle related to the response
1016:Middlewares/ST/BlueNRG-2/hci/bluenrg1_events_cb.c ****   * @param Attribute_Handle The handle of the attribute
1017:Middlewares/ST/BlueNRG-2/hci/bluenrg1_events_cb.c ****   * @param Attribute_Value_Length Length of Attribute_Value in octets
1018:Middlewares/ST/BlueNRG-2/hci/bluenrg1_events_cb.c ****   * @param Attribute_Value The current value of the attribute
1019:Middlewares/ST/BlueNRG-2/hci/bluenrg1_events_cb.c ****   * @retval None
1020:Middlewares/ST/BlueNRG-2/hci/bluenrg1_events_cb.c **** */
1021:Middlewares/ST/BlueNRG-2/hci/bluenrg1_events_cb.c **** WEAK_FUNCTION(void aci_gatt_indication_event(uint16_t Connection_Handle,
1022:Middlewares/ST/BlueNRG-2/hci/bluenrg1_events_cb.c ****                                uint16_t Attribute_Handle,
1023:Middlewares/ST/BlueNRG-2/hci/bluenrg1_events_cb.c ****                                uint8_t Attribute_Value_Length,
1024:Middlewares/ST/BlueNRG-2/hci/bluenrg1_events_cb.c ****                                uint8_t Attribute_Value[]))
1025:Middlewares/ST/BlueNRG-2/hci/bluenrg1_events_cb.c **** {
 846              		.loc 1 1025 1 is_stmt 1 view -0
 847              		.cfi_startproc
 848              		@ args = 0, pretend = 0, frame = 0
 849              		@ frame_needed = 0, uses_anonymous_args = 0
 850              		@ link register save eliminated.
1026:Middlewares/ST/BlueNRG-2/hci/bluenrg1_events_cb.c ****   /* NOTE : This function Should not be modified, when needed,
1027:Middlewares/ST/BlueNRG-2/hci/bluenrg1_events_cb.c ****             the callback could be implemented in the user file
1028:Middlewares/ST/BlueNRG-2/hci/bluenrg1_events_cb.c ****    */
1029:Middlewares/ST/BlueNRG-2/hci/bluenrg1_events_cb.c ****   BLUENRG_PRINTF("aci_gatt_indication_event\r\n");
 851              		.loc 1 1029 50 view .LVU118
1030:Middlewares/ST/BlueNRG-2/hci/bluenrg1_events_cb.c **** }
 852              		.loc 1 1030 1 is_stmt 0 view .LVU119
 853 0000 7047     		bx	lr
 854              		.cfi_endproc
 855              	.LFE169:
 857              		.section	.text.aci_gatt_notification_event,"ax",%progbits
 858              		.align	1
 859              		.weak	aci_gatt_notification_event
 860              		.syntax unified
 861              		.thumb
 862              		.thumb_func
 864              	aci_gatt_notification_event:
 865              	.LVL37:
 866              	.LFB170:
1031:Middlewares/ST/BlueNRG-2/hci/bluenrg1_events_cb.c **** /**
1032:Middlewares/ST/BlueNRG-2/hci/bluenrg1_events_cb.c ****   * @brief This event is generated when a notification is received from the server.
1033:Middlewares/ST/BlueNRG-2/hci/bluenrg1_events_cb.c ****   * @param Connection_Handle Connection handle related to the response
1034:Middlewares/ST/BlueNRG-2/hci/bluenrg1_events_cb.c ****   * @param Attribute_Handle The handle of the attribute
1035:Middlewares/ST/BlueNRG-2/hci/bluenrg1_events_cb.c ****   * @param Attribute_Value_Length Length of Attribute_Value in octets
1036:Middlewares/ST/BlueNRG-2/hci/bluenrg1_events_cb.c ****   * @param Attribute_Value The current value of the attribute
1037:Middlewares/ST/BlueNRG-2/hci/bluenrg1_events_cb.c ****   * @retval None
1038:Middlewares/ST/BlueNRG-2/hci/bluenrg1_events_cb.c **** */
1039:Middlewares/ST/BlueNRG-2/hci/bluenrg1_events_cb.c **** WEAK_FUNCTION(void aci_gatt_notification_event(uint16_t Connection_Handle,
ARM GAS  C:\Users\zafee\AppData\Local\Temp\ccvOQAyH.s 			page 33


1040:Middlewares/ST/BlueNRG-2/hci/bluenrg1_events_cb.c ****                                  uint16_t Attribute_Handle,
1041:Middlewares/ST/BlueNRG-2/hci/bluenrg1_events_cb.c ****                                  uint8_t Attribute_Value_Length,
1042:Middlewares/ST/BlueNRG-2/hci/bluenrg1_events_cb.c ****                                  uint8_t Attribute_Value[]))
1043:Middlewares/ST/BlueNRG-2/hci/bluenrg1_events_cb.c **** {
 867              		.loc 1 1043 1 is_stmt 1 view -0
 868              		.cfi_startproc
 869              		@ args = 0, pretend = 0, frame = 0
 870              		@ frame_needed = 0, uses_anonymous_args = 0
 871              		@ link register save eliminated.
1044:Middlewares/ST/BlueNRG-2/hci/bluenrg1_events_cb.c ****   /* NOTE : This function Should not be modified, when needed,
1045:Middlewares/ST/BlueNRG-2/hci/bluenrg1_events_cb.c ****             the callback could be implemented in the user file
1046:Middlewares/ST/BlueNRG-2/hci/bluenrg1_events_cb.c ****    */
1047:Middlewares/ST/BlueNRG-2/hci/bluenrg1_events_cb.c ****   BLUENRG_PRINTF("aci_gatt_notification_event\r\n");
 872              		.loc 1 1047 52 view .LVU121
1048:Middlewares/ST/BlueNRG-2/hci/bluenrg1_events_cb.c **** }
 873              		.loc 1 1048 1 is_stmt 0 view .LVU122
 874 0000 7047     		bx	lr
 875              		.cfi_endproc
 876              	.LFE170:
 878              		.section	.text.aci_gatt_proc_complete_event,"ax",%progbits
 879              		.align	1
 880              		.weak	aci_gatt_proc_complete_event
 881              		.syntax unified
 882              		.thumb
 883              		.thumb_func
 885              	aci_gatt_proc_complete_event:
 886              	.LVL38:
 887              	.LFB171:
1049:Middlewares/ST/BlueNRG-2/hci/bluenrg1_events_cb.c **** /**
1050:Middlewares/ST/BlueNRG-2/hci/bluenrg1_events_cb.c ****   * @brief This event is generated when a GATT client procedure completes either with error or
1051:Middlewares/ST/BlueNRG-2/hci/bluenrg1_events_cb.c **** successfully.
1052:Middlewares/ST/BlueNRG-2/hci/bluenrg1_events_cb.c ****   * @param Connection_Handle Connection handle related to the response
1053:Middlewares/ST/BlueNRG-2/hci/bluenrg1_events_cb.c ****   * @param Error_Code Indicates whether the procedure completed with an error or was successful
1054:Middlewares/ST/BlueNRG-2/hci/bluenrg1_events_cb.c ****   * Values:
1055:Middlewares/ST/BlueNRG-2/hci/bluenrg1_events_cb.c ****   - 0x00: Success
1056:Middlewares/ST/BlueNRG-2/hci/bluenrg1_events_cb.c ****   - 0x01: Unknown HCI Command
1057:Middlewares/ST/BlueNRG-2/hci/bluenrg1_events_cb.c ****   - 0x02: Unknown Connection Identifier
1058:Middlewares/ST/BlueNRG-2/hci/bluenrg1_events_cb.c ****   - 0x03: Hardware Failure
1059:Middlewares/ST/BlueNRG-2/hci/bluenrg1_events_cb.c ****   - 0x04: Page Timeout
1060:Middlewares/ST/BlueNRG-2/hci/bluenrg1_events_cb.c ****   - 0x05: Authentication Failure
1061:Middlewares/ST/BlueNRG-2/hci/bluenrg1_events_cb.c ****   - 0x06: PIN or Key Missing
1062:Middlewares/ST/BlueNRG-2/hci/bluenrg1_events_cb.c ****   - 0x07: Memory Capacity Exceeded
1063:Middlewares/ST/BlueNRG-2/hci/bluenrg1_events_cb.c ****   - 0x08: Connection Timeout
1064:Middlewares/ST/BlueNRG-2/hci/bluenrg1_events_cb.c ****   - 0x09: Connection Limit Exceeded
1065:Middlewares/ST/BlueNRG-2/hci/bluenrg1_events_cb.c ****   - 0x0A: Synchronous Connection Limit to a Device Exceeded
1066:Middlewares/ST/BlueNRG-2/hci/bluenrg1_events_cb.c ****   - 0x0B: ACL Connection Already Exists
1067:Middlewares/ST/BlueNRG-2/hci/bluenrg1_events_cb.c ****   - 0x0C: Command Disallowed
1068:Middlewares/ST/BlueNRG-2/hci/bluenrg1_events_cb.c ****   - 0x0D: Connection Rejected Due To Limited Resources
1069:Middlewares/ST/BlueNRG-2/hci/bluenrg1_events_cb.c ****   - 0x0E: Connection Rejected Due To Security Reasons
1070:Middlewares/ST/BlueNRG-2/hci/bluenrg1_events_cb.c ****   - 0x0F: Connection Rejected due to Unacceptable BD_ADDR
1071:Middlewares/ST/BlueNRG-2/hci/bluenrg1_events_cb.c ****   - 0x10: Connection Accept Timeout Exceeded
1072:Middlewares/ST/BlueNRG-2/hci/bluenrg1_events_cb.c ****   - 0x11: Unsupported Feature Or Parameter Value
1073:Middlewares/ST/BlueNRG-2/hci/bluenrg1_events_cb.c ****   - 0x12: Invalid HCI Command Parameters
1074:Middlewares/ST/BlueNRG-2/hci/bluenrg1_events_cb.c ****   - 0x13: Remote User Terminated Connection
1075:Middlewares/ST/BlueNRG-2/hci/bluenrg1_events_cb.c ****   - 0x14: Remote Device Terminated Connection due to Low Resources
1076:Middlewares/ST/BlueNRG-2/hci/bluenrg1_events_cb.c ****   - 0x15: Remote Device Terminated Connection due to Power Off
1077:Middlewares/ST/BlueNRG-2/hci/bluenrg1_events_cb.c ****   - 0x16: Connection Terminated By Local Host
ARM GAS  C:\Users\zafee\AppData\Local\Temp\ccvOQAyH.s 			page 34


1078:Middlewares/ST/BlueNRG-2/hci/bluenrg1_events_cb.c ****   - 0x17: Repeated Attempts
1079:Middlewares/ST/BlueNRG-2/hci/bluenrg1_events_cb.c ****   - 0x18: Pairing Not Allowed
1080:Middlewares/ST/BlueNRG-2/hci/bluenrg1_events_cb.c ****   - 0x19: Unknown LMP PDU
1081:Middlewares/ST/BlueNRG-2/hci/bluenrg1_events_cb.c ****   - 0x1A: Unsupported Remote Feature / Unsupported LMP Feature
1082:Middlewares/ST/BlueNRG-2/hci/bluenrg1_events_cb.c ****   - 0x1B: SCO Offset Rejected
1083:Middlewares/ST/BlueNRG-2/hci/bluenrg1_events_cb.c ****   - 0x1C: SCO Interval Rejected
1084:Middlewares/ST/BlueNRG-2/hci/bluenrg1_events_cb.c ****   - 0x1D: SCO Air Mode Rejected
1085:Middlewares/ST/BlueNRG-2/hci/bluenrg1_events_cb.c ****   - 0x1E: Invalid LMP Parameters
1086:Middlewares/ST/BlueNRG-2/hci/bluenrg1_events_cb.c ****   - 0x1F: Unspecified Error
1087:Middlewares/ST/BlueNRG-2/hci/bluenrg1_events_cb.c ****   - 0x20: Unsupported LMP Parameter Value
1088:Middlewares/ST/BlueNRG-2/hci/bluenrg1_events_cb.c ****   - 0x21: Role Change Not Allowed
1089:Middlewares/ST/BlueNRG-2/hci/bluenrg1_events_cb.c ****   - 0x22: LMP Response Timeout / LL Response Timeout
1090:Middlewares/ST/BlueNRG-2/hci/bluenrg1_events_cb.c ****   - 0x23: LMP Error Transaction Collision
1091:Middlewares/ST/BlueNRG-2/hci/bluenrg1_events_cb.c ****   - 0x24: LMP PDU Not Allowed
1092:Middlewares/ST/BlueNRG-2/hci/bluenrg1_events_cb.c ****   - 0x25: Encryption Mode Not Acceptable
1093:Middlewares/ST/BlueNRG-2/hci/bluenrg1_events_cb.c ****   - 0x26: Link Key cannot be Changed
1094:Middlewares/ST/BlueNRG-2/hci/bluenrg1_events_cb.c ****   - 0x27: Requested QoS Not Supported
1095:Middlewares/ST/BlueNRG-2/hci/bluenrg1_events_cb.c ****   - 0x28: Instant Passed
1096:Middlewares/ST/BlueNRG-2/hci/bluenrg1_events_cb.c ****   - 0x29: Pairing With Unit Key Not Supported
1097:Middlewares/ST/BlueNRG-2/hci/bluenrg1_events_cb.c ****   - 0x2A: Different Transaction Collision
1098:Middlewares/ST/BlueNRG-2/hci/bluenrg1_events_cb.c ****   - 0x2C: QoS Unacceptable Parameter
1099:Middlewares/ST/BlueNRG-2/hci/bluenrg1_events_cb.c ****   - 0x2D: QoS Rejected
1100:Middlewares/ST/BlueNRG-2/hci/bluenrg1_events_cb.c ****   - 0x2E: Channel Assessment Not Supported
1101:Middlewares/ST/BlueNRG-2/hci/bluenrg1_events_cb.c ****   - 0x2F: Insufficient Security
1102:Middlewares/ST/BlueNRG-2/hci/bluenrg1_events_cb.c ****   - 0x30: Parameter Out Of Mandatory Range
1103:Middlewares/ST/BlueNRG-2/hci/bluenrg1_events_cb.c ****   - 0x32: Role Switch Pending
1104:Middlewares/ST/BlueNRG-2/hci/bluenrg1_events_cb.c ****   - 0x34: Reserved Slot Violation
1105:Middlewares/ST/BlueNRG-2/hci/bluenrg1_events_cb.c ****   - 0x35: Role Switch Failed
1106:Middlewares/ST/BlueNRG-2/hci/bluenrg1_events_cb.c ****   - 0x36: Extended Inquiry Response Too Large
1107:Middlewares/ST/BlueNRG-2/hci/bluenrg1_events_cb.c ****   - 0x37: Secure Simple Pairing Not Supported by Host
1108:Middlewares/ST/BlueNRG-2/hci/bluenrg1_events_cb.c ****   - 0x38: Host Busy - Pairing
1109:Middlewares/ST/BlueNRG-2/hci/bluenrg1_events_cb.c ****   - 0x39: Connection Rejected due to No Suitable Channel Found
1110:Middlewares/ST/BlueNRG-2/hci/bluenrg1_events_cb.c ****   - 0x3A: Controller Busy
1111:Middlewares/ST/BlueNRG-2/hci/bluenrg1_events_cb.c ****   - 0x3B: Unacceptable Connection Interval
1112:Middlewares/ST/BlueNRG-2/hci/bluenrg1_events_cb.c ****   - 0x3C: Directed Advertising Timeout
1113:Middlewares/ST/BlueNRG-2/hci/bluenrg1_events_cb.c ****   - 0x3D: Connection Terminated Due to MIC Failure
1114:Middlewares/ST/BlueNRG-2/hci/bluenrg1_events_cb.c ****   - 0x3E: Connection Failed to be Established
1115:Middlewares/ST/BlueNRG-2/hci/bluenrg1_events_cb.c ****   - 0x3F: MAC of the 802.11 AMP
1116:Middlewares/ST/BlueNRG-2/hci/bluenrg1_events_cb.c ****   - 0x41: Failed
1117:Middlewares/ST/BlueNRG-2/hci/bluenrg1_events_cb.c ****   - 0x42: Invalid parameters
1118:Middlewares/ST/BlueNRG-2/hci/bluenrg1_events_cb.c ****   - 0x43: Busy
1119:Middlewares/ST/BlueNRG-2/hci/bluenrg1_events_cb.c ****   - 0x44: Invalid length
1120:Middlewares/ST/BlueNRG-2/hci/bluenrg1_events_cb.c ****   - 0x45: Pending
1121:Middlewares/ST/BlueNRG-2/hci/bluenrg1_events_cb.c ****   - 0x46: Not allowed
1122:Middlewares/ST/BlueNRG-2/hci/bluenrg1_events_cb.c ****   - 0x47: GATT error
1123:Middlewares/ST/BlueNRG-2/hci/bluenrg1_events_cb.c ****   - 0x48: Address not resolved
1124:Middlewares/ST/BlueNRG-2/hci/bluenrg1_events_cb.c ****   - 0x50: Invalid CID
1125:Middlewares/ST/BlueNRG-2/hci/bluenrg1_events_cb.c ****   - 0x5A: CSRK not found
1126:Middlewares/ST/BlueNRG-2/hci/bluenrg1_events_cb.c ****   - 0x5B: IRK not found
1127:Middlewares/ST/BlueNRG-2/hci/bluenrg1_events_cb.c ****   - 0x5C: Device not found in DB
1128:Middlewares/ST/BlueNRG-2/hci/bluenrg1_events_cb.c ****   - 0x5D: Security DB full
1129:Middlewares/ST/BlueNRG-2/hci/bluenrg1_events_cb.c ****   - 0x5E: Device not bonded
1130:Middlewares/ST/BlueNRG-2/hci/bluenrg1_events_cb.c ****   - 0x5F: Device in blacklist
1131:Middlewares/ST/BlueNRG-2/hci/bluenrg1_events_cb.c ****   - 0x60: Invalid handle
1132:Middlewares/ST/BlueNRG-2/hci/bluenrg1_events_cb.c ****   - 0x61: Invalid parameter
1133:Middlewares/ST/BlueNRG-2/hci/bluenrg1_events_cb.c ****   - 0x62: Out of handles
1134:Middlewares/ST/BlueNRG-2/hci/bluenrg1_events_cb.c ****   - 0x63: Invalid operation
ARM GAS  C:\Users\zafee\AppData\Local\Temp\ccvOQAyH.s 			page 35


1135:Middlewares/ST/BlueNRG-2/hci/bluenrg1_events_cb.c ****   - 0x64: Insufficient resources
1136:Middlewares/ST/BlueNRG-2/hci/bluenrg1_events_cb.c ****   - 0x65: Insufficient encryption key size
1137:Middlewares/ST/BlueNRG-2/hci/bluenrg1_events_cb.c ****   - 0x66: Characteristic already exist
1138:Middlewares/ST/BlueNRG-2/hci/bluenrg1_events_cb.c ****   - 0x82: No valid slot
1139:Middlewares/ST/BlueNRG-2/hci/bluenrg1_events_cb.c ****   - 0x83: Short window
1140:Middlewares/ST/BlueNRG-2/hci/bluenrg1_events_cb.c ****   - 0x84: New interval failed
1141:Middlewares/ST/BlueNRG-2/hci/bluenrg1_events_cb.c ****   - 0x85: Too large interval
1142:Middlewares/ST/BlueNRG-2/hci/bluenrg1_events_cb.c ****   - 0x86: Slot length failed
1143:Middlewares/ST/BlueNRG-2/hci/bluenrg1_events_cb.c ****   - 0xFA: Flash read failed
1144:Middlewares/ST/BlueNRG-2/hci/bluenrg1_events_cb.c ****   - 0xFB: Flash write failed
1145:Middlewares/ST/BlueNRG-2/hci/bluenrg1_events_cb.c ****   - 0xFC: Flash erase failed
1146:Middlewares/ST/BlueNRG-2/hci/bluenrg1_events_cb.c ****   * @retval None
1147:Middlewares/ST/BlueNRG-2/hci/bluenrg1_events_cb.c **** */
1148:Middlewares/ST/BlueNRG-2/hci/bluenrg1_events_cb.c **** WEAK_FUNCTION(void aci_gatt_proc_complete_event(uint16_t Connection_Handle,
1149:Middlewares/ST/BlueNRG-2/hci/bluenrg1_events_cb.c ****                                   uint8_t Error_Code))
1150:Middlewares/ST/BlueNRG-2/hci/bluenrg1_events_cb.c **** {
 888              		.loc 1 1150 1 is_stmt 1 view -0
 889              		.cfi_startproc
 890              		@ args = 0, pretend = 0, frame = 0
 891              		@ frame_needed = 0, uses_anonymous_args = 0
 892              		@ link register save eliminated.
1151:Middlewares/ST/BlueNRG-2/hci/bluenrg1_events_cb.c ****   /* NOTE : This function Should not be modified, when needed,
1152:Middlewares/ST/BlueNRG-2/hci/bluenrg1_events_cb.c ****             the callback could be implemented in the user file
1153:Middlewares/ST/BlueNRG-2/hci/bluenrg1_events_cb.c ****    */
1154:Middlewares/ST/BlueNRG-2/hci/bluenrg1_events_cb.c ****   BLUENRG_PRINTF("aci_gatt_proc_complete_event\r\n");
 893              		.loc 1 1154 53 view .LVU124
1155:Middlewares/ST/BlueNRG-2/hci/bluenrg1_events_cb.c **** }
 894              		.loc 1 1155 1 is_stmt 0 view .LVU125
 895 0000 7047     		bx	lr
 896              		.cfi_endproc
 897              	.LFE171:
 899              		.section	.text.aci_gatt_error_resp_event,"ax",%progbits
 900              		.align	1
 901              		.weak	aci_gatt_error_resp_event
 902              		.syntax unified
 903              		.thumb
 904              		.thumb_func
 906              	aci_gatt_error_resp_event:
 907              	.LVL39:
 908              	.LFB172:
1156:Middlewares/ST/BlueNRG-2/hci/bluenrg1_events_cb.c **** /**
1157:Middlewares/ST/BlueNRG-2/hci/bluenrg1_events_cb.c ****   * @brief This event is generated when an Error Response is received from the server. The error
1158:Middlewares/ST/BlueNRG-2/hci/bluenrg1_events_cb.c **** response can be given by the server at the end of one of the GATT discovery procedures.
1159:Middlewares/ST/BlueNRG-2/hci/bluenrg1_events_cb.c **** This does not mean that the procedure ended with an error, but this error event is part of the
1160:Middlewares/ST/BlueNRG-2/hci/bluenrg1_events_cb.c **** procedure itself.
1161:Middlewares/ST/BlueNRG-2/hci/bluenrg1_events_cb.c ****   * @param Connection_Handle Connection handle related to the response
1162:Middlewares/ST/BlueNRG-2/hci/bluenrg1_events_cb.c ****   * @param Req_Opcode The request that generated this error response
1163:Middlewares/ST/BlueNRG-2/hci/bluenrg1_events_cb.c ****   * @param Attribute_Handle The attribute handle that generated this error response
1164:Middlewares/ST/BlueNRG-2/hci/bluenrg1_events_cb.c ****   * @param Error_Code The reason why the request has generated an error response (ATT error codes)
1165:Middlewares/ST/BlueNRG-2/hci/bluenrg1_events_cb.c ****   * Values:
1166:Middlewares/ST/BlueNRG-2/hci/bluenrg1_events_cb.c ****   - 0x01: Invalid handle
1167:Middlewares/ST/BlueNRG-2/hci/bluenrg1_events_cb.c ****   - 0x02: Read not permitted
1168:Middlewares/ST/BlueNRG-2/hci/bluenrg1_events_cb.c ****   - 0x03: Write not permitted
1169:Middlewares/ST/BlueNRG-2/hci/bluenrg1_events_cb.c ****   - 0x04: Invalid PDU
1170:Middlewares/ST/BlueNRG-2/hci/bluenrg1_events_cb.c ****   - 0x05: Insufficient authentication
1171:Middlewares/ST/BlueNRG-2/hci/bluenrg1_events_cb.c ****   - 0x06: Request not supported
1172:Middlewares/ST/BlueNRG-2/hci/bluenrg1_events_cb.c ****   - 0x07: Invalid offset
ARM GAS  C:\Users\zafee\AppData\Local\Temp\ccvOQAyH.s 			page 36


1173:Middlewares/ST/BlueNRG-2/hci/bluenrg1_events_cb.c ****   - 0x08: Insufficient authorization
1174:Middlewares/ST/BlueNRG-2/hci/bluenrg1_events_cb.c ****   - 0x09: Prepare queue full
1175:Middlewares/ST/BlueNRG-2/hci/bluenrg1_events_cb.c ****   - 0x0A: Attribute not found
1176:Middlewares/ST/BlueNRG-2/hci/bluenrg1_events_cb.c ****   - 0x0B: Attribute not long
1177:Middlewares/ST/BlueNRG-2/hci/bluenrg1_events_cb.c ****   - 0x0C: Insufficient encryption key size
1178:Middlewares/ST/BlueNRG-2/hci/bluenrg1_events_cb.c ****   - 0x0D: Invalid attribute value length
1179:Middlewares/ST/BlueNRG-2/hci/bluenrg1_events_cb.c ****   - 0x0E: Unlikely error
1180:Middlewares/ST/BlueNRG-2/hci/bluenrg1_events_cb.c ****   - 0x0F: Insufficient encryption
1181:Middlewares/ST/BlueNRG-2/hci/bluenrg1_events_cb.c ****   - 0x10: Unsupported group type
1182:Middlewares/ST/BlueNRG-2/hci/bluenrg1_events_cb.c ****   - 0x11: Insufficient resources
1183:Middlewares/ST/BlueNRG-2/hci/bluenrg1_events_cb.c ****   * @retval None
1184:Middlewares/ST/BlueNRG-2/hci/bluenrg1_events_cb.c **** */
1185:Middlewares/ST/BlueNRG-2/hci/bluenrg1_events_cb.c **** WEAK_FUNCTION(void aci_gatt_error_resp_event(uint16_t Connection_Handle,
1186:Middlewares/ST/BlueNRG-2/hci/bluenrg1_events_cb.c ****                                uint8_t Req_Opcode,
1187:Middlewares/ST/BlueNRG-2/hci/bluenrg1_events_cb.c ****                                uint16_t Attribute_Handle,
1188:Middlewares/ST/BlueNRG-2/hci/bluenrg1_events_cb.c ****                                uint8_t Error_Code))
1189:Middlewares/ST/BlueNRG-2/hci/bluenrg1_events_cb.c **** {
 909              		.loc 1 1189 1 is_stmt 1 view -0
 910              		.cfi_startproc
 911              		@ args = 0, pretend = 0, frame = 0
 912              		@ frame_needed = 0, uses_anonymous_args = 0
 913              		@ link register save eliminated.
1190:Middlewares/ST/BlueNRG-2/hci/bluenrg1_events_cb.c ****   /* NOTE : This function Should not be modified, when needed,
1191:Middlewares/ST/BlueNRG-2/hci/bluenrg1_events_cb.c ****             the callback could be implemented in the user file
1192:Middlewares/ST/BlueNRG-2/hci/bluenrg1_events_cb.c ****    */
1193:Middlewares/ST/BlueNRG-2/hci/bluenrg1_events_cb.c ****   BLUENRG_PRINTF("aci_gatt_error_resp_event\r\n");
 914              		.loc 1 1193 50 view .LVU127
1194:Middlewares/ST/BlueNRG-2/hci/bluenrg1_events_cb.c **** }
 915              		.loc 1 1194 1 is_stmt 0 view .LVU128
 916 0000 7047     		bx	lr
 917              		.cfi_endproc
 918              	.LFE172:
 920              		.section	.text.aci_gatt_disc_read_char_by_uuid_resp_event,"ax",%progbits
 921              		.align	1
 922              		.weak	aci_gatt_disc_read_char_by_uuid_resp_event
 923              		.syntax unified
 924              		.thumb
 925              		.thumb_func
 927              	aci_gatt_disc_read_char_by_uuid_resp_event:
 928              	.LVL40:
 929              	.LFB173:
1195:Middlewares/ST/BlueNRG-2/hci/bluenrg1_events_cb.c **** /**
1196:Middlewares/ST/BlueNRG-2/hci/bluenrg1_events_cb.c ****   * @brief This event can be generated during a "Discover Characteristics By UUID" procedure or a
1197:Middlewares/ST/BlueNRG-2/hci/bluenrg1_events_cb.c **** "Read using Characteristic UUID" procedure.
1198:Middlewares/ST/BlueNRG-2/hci/bluenrg1_events_cb.c **** The attribute value will be a service declaration as defined in Bluetooth Core v4.1spec
1199:Middlewares/ST/BlueNRG-2/hci/bluenrg1_events_cb.c **** (vol.3, Part G, ch. 3.3.1), when a "Discover Characteristics By UUID" has been started. It will
1200:Middlewares/ST/BlueNRG-2/hci/bluenrg1_events_cb.c **** be the value of the Characteristic if a* "Read using Characteristic UUID" has been
1201:Middlewares/ST/BlueNRG-2/hci/bluenrg1_events_cb.c **** performed.
1202:Middlewares/ST/BlueNRG-2/hci/bluenrg1_events_cb.c ****   * @param Connection_Handle Connection handle related to the response
1203:Middlewares/ST/BlueNRG-2/hci/bluenrg1_events_cb.c ****   * @param Attribute_Handle The handle of the attribute
1204:Middlewares/ST/BlueNRG-2/hci/bluenrg1_events_cb.c ****   * @param Attribute_Value_Length Length of Attribute_Value in octets
1205:Middlewares/ST/BlueNRG-2/hci/bluenrg1_events_cb.c ****   * @param Attribute_Value The attribute value will be a service declaration as defined in Bluetoot
1206:Middlewares/ST/BlueNRG-2/hci/bluenrg1_events_cb.c ****  (vol.3, Part G, ch. 3.3.1), when a "Discover Characteristics By UUID" has been started.
1207:Middlewares/ST/BlueNRG-2/hci/bluenrg1_events_cb.c ****  It will be the value of the Characteristic if a "Read using Characteristic UUID" has been performe
1208:Middlewares/ST/BlueNRG-2/hci/bluenrg1_events_cb.c ****   * @retval None
1209:Middlewares/ST/BlueNRG-2/hci/bluenrg1_events_cb.c **** */
1210:Middlewares/ST/BlueNRG-2/hci/bluenrg1_events_cb.c **** WEAK_FUNCTION(void aci_gatt_disc_read_char_by_uuid_resp_event(uint16_t Connection_Handle,
ARM GAS  C:\Users\zafee\AppData\Local\Temp\ccvOQAyH.s 			page 37


1211:Middlewares/ST/BlueNRG-2/hci/bluenrg1_events_cb.c ****                                                 uint16_t Attribute_Handle,
1212:Middlewares/ST/BlueNRG-2/hci/bluenrg1_events_cb.c ****                                                 uint8_t Attribute_Value_Length,
1213:Middlewares/ST/BlueNRG-2/hci/bluenrg1_events_cb.c ****                                                 uint8_t Attribute_Value[]))
1214:Middlewares/ST/BlueNRG-2/hci/bluenrg1_events_cb.c **** {
 930              		.loc 1 1214 1 is_stmt 1 view -0
 931              		.cfi_startproc
 932              		@ args = 0, pretend = 0, frame = 0
 933              		@ frame_needed = 0, uses_anonymous_args = 0
 934              		@ link register save eliminated.
1215:Middlewares/ST/BlueNRG-2/hci/bluenrg1_events_cb.c ****   /* NOTE : This function Should not be modified, when needed,
1216:Middlewares/ST/BlueNRG-2/hci/bluenrg1_events_cb.c ****             the callback could be implemented in the user file
1217:Middlewares/ST/BlueNRG-2/hci/bluenrg1_events_cb.c ****    */
1218:Middlewares/ST/BlueNRG-2/hci/bluenrg1_events_cb.c ****   BLUENRG_PRINTF("aci_gatt_disc_read_char_by_uuid_resp_event\r\n");
 935              		.loc 1 1218 67 view .LVU130
1219:Middlewares/ST/BlueNRG-2/hci/bluenrg1_events_cb.c **** }
 936              		.loc 1 1219 1 is_stmt 0 view .LVU131
 937 0000 7047     		bx	lr
 938              		.cfi_endproc
 939              	.LFE173:
 941              		.section	.text.aci_gatt_write_permit_req_event,"ax",%progbits
 942              		.align	1
 943              		.weak	aci_gatt_write_permit_req_event
 944              		.syntax unified
 945              		.thumb
 946              		.thumb_func
 948              	aci_gatt_write_permit_req_event:
 949              	.LVL41:
 950              	.LFB174:
1220:Middlewares/ST/BlueNRG-2/hci/bluenrg1_events_cb.c **** /**
1221:Middlewares/ST/BlueNRG-2/hci/bluenrg1_events_cb.c ****   * @brief This event is given to the application when a write request, write command or signed wri
1222:Middlewares/ST/BlueNRG-2/hci/bluenrg1_events_cb.c **** command is received by the server from the client. This event will be given to the application
1223:Middlewares/ST/BlueNRG-2/hci/bluenrg1_events_cb.c **** only if the event bit for this event generation is set when the characteristic was added.
1224:Middlewares/ST/BlueNRG-2/hci/bluenrg1_events_cb.c **** When this event is received, the application has to check whether the value being requested
1225:Middlewares/ST/BlueNRG-2/hci/bluenrg1_events_cb.c **** for write can be allowed to be written and respond with the command @ref aci_gatt_write_resp.
1226:Middlewares/ST/BlueNRG-2/hci/bluenrg1_events_cb.c **** The details of the parameters of the command can be found. Based on the response from
1227:Middlewares/ST/BlueNRG-2/hci/bluenrg1_events_cb.c **** the application, the attribute value will be modified by the stack. If the write is rejected by the
1228:Middlewares/ST/BlueNRG-2/hci/bluenrg1_events_cb.c **** application, then the value of the attribute will not be modified. In case of a write REQ, an
1229:Middlewares/ST/BlueNRG-2/hci/bluenrg1_events_cb.c **** error response will be sent to the client, with the error code as specified by the application.
1230:Middlewares/ST/BlueNRG-2/hci/bluenrg1_events_cb.c **** In case of write/signed write commands, no response is sent to the client but the attribute is
1231:Middlewares/ST/BlueNRG-2/hci/bluenrg1_events_cb.c **** not modified.
1232:Middlewares/ST/BlueNRG-2/hci/bluenrg1_events_cb.c ****   * @param Connection_Handle Handle of the connection on which there was the request to write the a
1233:Middlewares/ST/BlueNRG-2/hci/bluenrg1_events_cb.c ****   * @param Attribute_Handle The handle of the attribute
1234:Middlewares/ST/BlueNRG-2/hci/bluenrg1_events_cb.c ****   * @param Data_Length Length of Data field
1235:Middlewares/ST/BlueNRG-2/hci/bluenrg1_events_cb.c ****   * @param Data The data that the client has requested to write
1236:Middlewares/ST/BlueNRG-2/hci/bluenrg1_events_cb.c ****   * @retval None
1237:Middlewares/ST/BlueNRG-2/hci/bluenrg1_events_cb.c **** */
1238:Middlewares/ST/BlueNRG-2/hci/bluenrg1_events_cb.c **** WEAK_FUNCTION(void aci_gatt_write_permit_req_event(uint16_t Connection_Handle,
1239:Middlewares/ST/BlueNRG-2/hci/bluenrg1_events_cb.c ****                                      uint16_t Attribute_Handle,
1240:Middlewares/ST/BlueNRG-2/hci/bluenrg1_events_cb.c ****                                      uint8_t Data_Length,
1241:Middlewares/ST/BlueNRG-2/hci/bluenrg1_events_cb.c ****                                      uint8_t Data[]))
1242:Middlewares/ST/BlueNRG-2/hci/bluenrg1_events_cb.c **** {
 951              		.loc 1 1242 1 is_stmt 1 view -0
 952              		.cfi_startproc
 953              		@ args = 0, pretend = 0, frame = 0
 954              		@ frame_needed = 0, uses_anonymous_args = 0
 955              		@ link register save eliminated.
1243:Middlewares/ST/BlueNRG-2/hci/bluenrg1_events_cb.c ****   /* NOTE : This function Should not be modified, when needed,
ARM GAS  C:\Users\zafee\AppData\Local\Temp\ccvOQAyH.s 			page 38


1244:Middlewares/ST/BlueNRG-2/hci/bluenrg1_events_cb.c ****             the callback could be implemented in the user file
1245:Middlewares/ST/BlueNRG-2/hci/bluenrg1_events_cb.c ****    */
1246:Middlewares/ST/BlueNRG-2/hci/bluenrg1_events_cb.c ****   BLUENRG_PRINTF("aci_gatt_write_permit_req_event\r\n");
 956              		.loc 1 1246 56 view .LVU133
1247:Middlewares/ST/BlueNRG-2/hci/bluenrg1_events_cb.c **** }
 957              		.loc 1 1247 1 is_stmt 0 view .LVU134
 958 0000 7047     		bx	lr
 959              		.cfi_endproc
 960              	.LFE174:
 962              		.section	.text.aci_gatt_read_permit_req_event,"ax",%progbits
 963              		.align	1
 964              		.weak	aci_gatt_read_permit_req_event
 965              		.syntax unified
 966              		.thumb
 967              		.thumb_func
 969              	aci_gatt_read_permit_req_event:
 970              	.LVL42:
 971              	.LFB175:
1248:Middlewares/ST/BlueNRG-2/hci/bluenrg1_events_cb.c **** /**
1249:Middlewares/ST/BlueNRG-2/hci/bluenrg1_events_cb.c ****   * @brief This event is given to the application when a read request or read blob request is recei
1250:Middlewares/ST/BlueNRG-2/hci/bluenrg1_events_cb.c **** by the server from the client. This event will be given to the application only if the event bit
1251:Middlewares/ST/BlueNRG-2/hci/bluenrg1_events_cb.c **** for this event generation is set when the characteristic was added.
1252:Middlewares/ST/BlueNRG-2/hci/bluenrg1_events_cb.c **** On receiving this event, the application can update the value of the handle if it desires and
1253:Middlewares/ST/BlueNRG-2/hci/bluenrg1_events_cb.c **** when done, it has to send the @ref aci_gatt_allow_read command to indicate to the stack that it
1254:Middlewares/ST/BlueNRG-2/hci/bluenrg1_events_cb.c **** can send the response to the client.
1255:Middlewares/ST/BlueNRG-2/hci/bluenrg1_events_cb.c ****   * @param Connection_Handle Connection handle related to the response
1256:Middlewares/ST/BlueNRG-2/hci/bluenrg1_events_cb.c ****   * @param Attribute_Handle The handle of the attribute
1257:Middlewares/ST/BlueNRG-2/hci/bluenrg1_events_cb.c ****   * @param Offset Contains the offset from which the read has been requested
1258:Middlewares/ST/BlueNRG-2/hci/bluenrg1_events_cb.c ****   * @retval None
1259:Middlewares/ST/BlueNRG-2/hci/bluenrg1_events_cb.c **** */
1260:Middlewares/ST/BlueNRG-2/hci/bluenrg1_events_cb.c **** WEAK_FUNCTION(void aci_gatt_read_permit_req_event(uint16_t Connection_Handle,
1261:Middlewares/ST/BlueNRG-2/hci/bluenrg1_events_cb.c ****                                     uint16_t Attribute_Handle,
1262:Middlewares/ST/BlueNRG-2/hci/bluenrg1_events_cb.c ****                                     uint16_t Offset))
1263:Middlewares/ST/BlueNRG-2/hci/bluenrg1_events_cb.c **** {
 972              		.loc 1 1263 1 is_stmt 1 view -0
 973              		.cfi_startproc
 974              		@ args = 0, pretend = 0, frame = 0
 975              		@ frame_needed = 0, uses_anonymous_args = 0
 976              		@ link register save eliminated.
1264:Middlewares/ST/BlueNRG-2/hci/bluenrg1_events_cb.c ****   /* NOTE : This function Should not be modified, when needed,
1265:Middlewares/ST/BlueNRG-2/hci/bluenrg1_events_cb.c ****             the callback could be implemented in the user file
1266:Middlewares/ST/BlueNRG-2/hci/bluenrg1_events_cb.c ****    */
1267:Middlewares/ST/BlueNRG-2/hci/bluenrg1_events_cb.c ****   BLUENRG_PRINTF("aci_gatt_read_permit_req_event\r\n");
 977              		.loc 1 1267 55 view .LVU136
1268:Middlewares/ST/BlueNRG-2/hci/bluenrg1_events_cb.c **** }
 978              		.loc 1 1268 1 is_stmt 0 view .LVU137
 979 0000 7047     		bx	lr
 980              		.cfi_endproc
 981              	.LFE175:
 983              		.section	.text.aci_gatt_read_multi_permit_req_event,"ax",%progbits
 984              		.align	1
 985              		.weak	aci_gatt_read_multi_permit_req_event
 986              		.syntax unified
 987              		.thumb
 988              		.thumb_func
 990              	aci_gatt_read_multi_permit_req_event:
 991              	.LVL43:
ARM GAS  C:\Users\zafee\AppData\Local\Temp\ccvOQAyH.s 			page 39


 992              	.LFB176:
1269:Middlewares/ST/BlueNRG-2/hci/bluenrg1_events_cb.c **** /**
1270:Middlewares/ST/BlueNRG-2/hci/bluenrg1_events_cb.c ****   * @brief This event is given to the application when a read multiple request or read by type requ
1271:Middlewares/ST/BlueNRG-2/hci/bluenrg1_events_cb.c **** received by the server from the client. This event will be given to the application only if the
1272:Middlewares/ST/BlueNRG-2/hci/bluenrg1_events_cb.c **** event bit for this event generation is set when the characteristic was added.
1273:Middlewares/ST/BlueNRG-2/hci/bluenrg1_events_cb.c **** On receiving this event, the application can update the values of the handles if it desires and
1274:Middlewares/ST/BlueNRG-2/hci/bluenrg1_events_cb.c **** when done, it has to send the @ref aci_gatt_allow_read command to indicate to the stack that it
1275:Middlewares/ST/BlueNRG-2/hci/bluenrg1_events_cb.c **** can send the response to the client.
1276:Middlewares/ST/BlueNRG-2/hci/bluenrg1_events_cb.c ****   * @param Connection_Handle Handle of the connection which requested to read the attribute
1277:Middlewares/ST/BlueNRG-2/hci/bluenrg1_events_cb.c ****   * @param Number_of_Handles 
1278:Middlewares/ST/BlueNRG-2/hci/bluenrg1_events_cb.c ****   * @param Handle_Item See @ref Handle_Item_t
1279:Middlewares/ST/BlueNRG-2/hci/bluenrg1_events_cb.c ****   * @retval None
1280:Middlewares/ST/BlueNRG-2/hci/bluenrg1_events_cb.c **** */
1281:Middlewares/ST/BlueNRG-2/hci/bluenrg1_events_cb.c **** WEAK_FUNCTION(void aci_gatt_read_multi_permit_req_event(uint16_t Connection_Handle,
1282:Middlewares/ST/BlueNRG-2/hci/bluenrg1_events_cb.c ****                                           uint8_t Number_of_Handles,
1283:Middlewares/ST/BlueNRG-2/hci/bluenrg1_events_cb.c ****                                           Handle_Item_t Handle_Item[]))
1284:Middlewares/ST/BlueNRG-2/hci/bluenrg1_events_cb.c **** {
 993              		.loc 1 1284 1 is_stmt 1 view -0
 994              		.cfi_startproc
 995              		@ args = 0, pretend = 0, frame = 0
 996              		@ frame_needed = 0, uses_anonymous_args = 0
 997              		@ link register save eliminated.
1285:Middlewares/ST/BlueNRG-2/hci/bluenrg1_events_cb.c ****   /* NOTE : This function Should not be modified, when needed,
1286:Middlewares/ST/BlueNRG-2/hci/bluenrg1_events_cb.c ****             the callback could be implemented in the user file
1287:Middlewares/ST/BlueNRG-2/hci/bluenrg1_events_cb.c ****    */
1288:Middlewares/ST/BlueNRG-2/hci/bluenrg1_events_cb.c ****   BLUENRG_PRINTF("aci_gatt_read_multi_permit_req_event\r\n");
 998              		.loc 1 1288 61 view .LVU139
1289:Middlewares/ST/BlueNRG-2/hci/bluenrg1_events_cb.c **** }
 999              		.loc 1 1289 1 is_stmt 0 view .LVU140
 1000 0000 7047     		bx	lr
 1001              		.cfi_endproc
 1002              	.LFE176:
 1004              		.section	.text.aci_gatt_tx_pool_available_event,"ax",%progbits
 1005              		.align	1
 1006              		.weak	aci_gatt_tx_pool_available_event
 1007              		.syntax unified
 1008              		.thumb
 1009              		.thumb_func
 1011              	aci_gatt_tx_pool_available_event:
 1012              	.LVL44:
 1013              	.LFB177:
1290:Middlewares/ST/BlueNRG-2/hci/bluenrg1_events_cb.c **** /**
1291:Middlewares/ST/BlueNRG-2/hci/bluenrg1_events_cb.c ****   * @brief Each time BLE FW stack raises the error code @ref ble_status_insufficient_resources (0x6
1292:Middlewares/ST/BlueNRG-2/hci/bluenrg1_events_cb.c **** the @ref aci_gatt_tx_pool_available_event event is generated as soon as the available buffer size 
1293:Middlewares/ST/BlueNRG-2/hci/bluenrg1_events_cb.c **** is greater than maximum ATT MTU (on stack versions below v2.1 this event is generated when at least
1294:Middlewares/ST/BlueNRG-2/hci/bluenrg1_events_cb.c **** with MTU of 23 bytes are available).
1295:Middlewares/ST/BlueNRG-2/hci/bluenrg1_events_cb.c ****   * @param Connection_Handle Connection handle related to the request
1296:Middlewares/ST/BlueNRG-2/hci/bluenrg1_events_cb.c ****   * @param Available_Buffers Not used.
1297:Middlewares/ST/BlueNRG-2/hci/bluenrg1_events_cb.c ****   * @retval None
1298:Middlewares/ST/BlueNRG-2/hci/bluenrg1_events_cb.c **** */
1299:Middlewares/ST/BlueNRG-2/hci/bluenrg1_events_cb.c **** WEAK_FUNCTION(void aci_gatt_tx_pool_available_event(uint16_t Connection_Handle,
1300:Middlewares/ST/BlueNRG-2/hci/bluenrg1_events_cb.c ****                                       uint16_t Available_Buffers))
1301:Middlewares/ST/BlueNRG-2/hci/bluenrg1_events_cb.c **** {
 1014              		.loc 1 1301 1 is_stmt 1 view -0
 1015              		.cfi_startproc
 1016              		@ args = 0, pretend = 0, frame = 0
 1017              		@ frame_needed = 0, uses_anonymous_args = 0
ARM GAS  C:\Users\zafee\AppData\Local\Temp\ccvOQAyH.s 			page 40


 1018              		@ link register save eliminated.
1302:Middlewares/ST/BlueNRG-2/hci/bluenrg1_events_cb.c ****   /* NOTE : This function Should not be modified, when needed,
1303:Middlewares/ST/BlueNRG-2/hci/bluenrg1_events_cb.c ****             the callback could be implemented in the user file
1304:Middlewares/ST/BlueNRG-2/hci/bluenrg1_events_cb.c ****    */
1305:Middlewares/ST/BlueNRG-2/hci/bluenrg1_events_cb.c ****   BLUENRG_PRINTF("aci_gatt_tx_pool_available_event\r\n");
 1019              		.loc 1 1305 57 view .LVU142
1306:Middlewares/ST/BlueNRG-2/hci/bluenrg1_events_cb.c **** }
 1020              		.loc 1 1306 1 is_stmt 0 view .LVU143
 1021 0000 7047     		bx	lr
 1022              		.cfi_endproc
 1023              	.LFE177:
 1025              		.section	.text.aci_gatt_server_confirmation_event,"ax",%progbits
 1026              		.align	1
 1027              		.weak	aci_gatt_server_confirmation_event
 1028              		.syntax unified
 1029              		.thumb
 1030              		.thumb_func
 1032              	aci_gatt_server_confirmation_event:
 1033              	.LVL45:
 1034              	.LFB178:
1307:Middlewares/ST/BlueNRG-2/hci/bluenrg1_events_cb.c **** /**
1308:Middlewares/ST/BlueNRG-2/hci/bluenrg1_events_cb.c ****   * @brief This event is generated when the client has sent the confirmation to a previously sent i
1309:Middlewares/ST/BlueNRG-2/hci/bluenrg1_events_cb.c ****   * @param Connection_Handle Connection handle related to the event
1310:Middlewares/ST/BlueNRG-2/hci/bluenrg1_events_cb.c ****   * @retval None
1311:Middlewares/ST/BlueNRG-2/hci/bluenrg1_events_cb.c **** */
1312:Middlewares/ST/BlueNRG-2/hci/bluenrg1_events_cb.c **** WEAK_FUNCTION(void aci_gatt_server_confirmation_event(uint16_t Connection_Handle))
1313:Middlewares/ST/BlueNRG-2/hci/bluenrg1_events_cb.c **** {
 1035              		.loc 1 1313 1 is_stmt 1 view -0
 1036              		.cfi_startproc
 1037              		@ args = 0, pretend = 0, frame = 0
 1038              		@ frame_needed = 0, uses_anonymous_args = 0
 1039              		@ link register save eliminated.
1314:Middlewares/ST/BlueNRG-2/hci/bluenrg1_events_cb.c ****   /* NOTE : This function Should not be modified, when needed,
1315:Middlewares/ST/BlueNRG-2/hci/bluenrg1_events_cb.c ****             the callback could be implemented in the user file
1316:Middlewares/ST/BlueNRG-2/hci/bluenrg1_events_cb.c ****    */
1317:Middlewares/ST/BlueNRG-2/hci/bluenrg1_events_cb.c ****   BLUENRG_PRINTF("aci_gatt_server_confirmation_event\r\n");
 1040              		.loc 1 1317 59 view .LVU145
1318:Middlewares/ST/BlueNRG-2/hci/bluenrg1_events_cb.c **** }
 1041              		.loc 1 1318 1 is_stmt 0 view .LVU146
 1042 0000 7047     		bx	lr
 1043              		.cfi_endproc
 1044              	.LFE178:
 1046              		.section	.text.aci_gatt_prepare_write_permit_req_event,"ax",%progbits
 1047              		.align	1
 1048              		.weak	aci_gatt_prepare_write_permit_req_event
 1049              		.syntax unified
 1050              		.thumb
 1051              		.thumb_func
 1053              	aci_gatt_prepare_write_permit_req_event:
 1054              	.LVL46:
 1055              	.LFB179:
1319:Middlewares/ST/BlueNRG-2/hci/bluenrg1_events_cb.c **** /**
1320:Middlewares/ST/BlueNRG-2/hci/bluenrg1_events_cb.c ****   * @brief This event is given to the application when a prepare write request
1321:Middlewares/ST/BlueNRG-2/hci/bluenrg1_events_cb.c **** is received by the server from the client. This event will be given to the application
1322:Middlewares/ST/BlueNRG-2/hci/bluenrg1_events_cb.c **** only if the event bit for this event generation is set when the characteristic was added.
1323:Middlewares/ST/BlueNRG-2/hci/bluenrg1_events_cb.c **** When this event is received, the application has to check whether the value being requested
1324:Middlewares/ST/BlueNRG-2/hci/bluenrg1_events_cb.c **** for write can be allowed to be written and respond with the command @ref aci_gatt_write_resp.
ARM GAS  C:\Users\zafee\AppData\Local\Temp\ccvOQAyH.s 			page 41


1325:Middlewares/ST/BlueNRG-2/hci/bluenrg1_events_cb.c **** Based on the response from the application, the attribute value will be modified by the stack.
1326:Middlewares/ST/BlueNRG-2/hci/bluenrg1_events_cb.c **** If the write is rejected by the application, then the value of the attribute will not be modified
1327:Middlewares/ST/BlueNRG-2/hci/bluenrg1_events_cb.c **** and an error response will be sent to the client, with the error code as specified by the applicati
1328:Middlewares/ST/BlueNRG-2/hci/bluenrg1_events_cb.c ****   * @param Connection_Handle Handle of the connection on which there was the request to write the a
1329:Middlewares/ST/BlueNRG-2/hci/bluenrg1_events_cb.c ****   * @param Attribute_Handle The handle of the attribute
1330:Middlewares/ST/BlueNRG-2/hci/bluenrg1_events_cb.c ****   * @param Offset The offset from which the prepare write has been requested
1331:Middlewares/ST/BlueNRG-2/hci/bluenrg1_events_cb.c ****   * @param Data_Length Length of Data field
1332:Middlewares/ST/BlueNRG-2/hci/bluenrg1_events_cb.c ****   * @param Data The data that the client has requested to write
1333:Middlewares/ST/BlueNRG-2/hci/bluenrg1_events_cb.c ****   * @retval None
1334:Middlewares/ST/BlueNRG-2/hci/bluenrg1_events_cb.c **** */
1335:Middlewares/ST/BlueNRG-2/hci/bluenrg1_events_cb.c **** WEAK_FUNCTION(void aci_gatt_prepare_write_permit_req_event(uint16_t Connection_Handle,
1336:Middlewares/ST/BlueNRG-2/hci/bluenrg1_events_cb.c ****                                              uint16_t Attribute_Handle,
1337:Middlewares/ST/BlueNRG-2/hci/bluenrg1_events_cb.c ****                                              uint16_t Offset,
1338:Middlewares/ST/BlueNRG-2/hci/bluenrg1_events_cb.c ****                                              uint8_t Data_Length,
1339:Middlewares/ST/BlueNRG-2/hci/bluenrg1_events_cb.c ****                                              uint8_t Data[]))
1340:Middlewares/ST/BlueNRG-2/hci/bluenrg1_events_cb.c **** {
 1056              		.loc 1 1340 1 is_stmt 1 view -0
 1057              		.cfi_startproc
 1058              		@ args = 4, pretend = 0, frame = 0
 1059              		@ frame_needed = 0, uses_anonymous_args = 0
 1060              		@ link register save eliminated.
1341:Middlewares/ST/BlueNRG-2/hci/bluenrg1_events_cb.c ****   /* NOTE : This function Should not be modified, when needed,
1342:Middlewares/ST/BlueNRG-2/hci/bluenrg1_events_cb.c ****             the callback could be implemented in the user file
1343:Middlewares/ST/BlueNRG-2/hci/bluenrg1_events_cb.c ****    */
1344:Middlewares/ST/BlueNRG-2/hci/bluenrg1_events_cb.c ****   BLUENRG_PRINTF("aci_gatt_prepare_write_permit_req_event\r\n");
 1061              		.loc 1 1344 64 view .LVU148
1345:Middlewares/ST/BlueNRG-2/hci/bluenrg1_events_cb.c **** }
 1062              		.loc 1 1345 1 is_stmt 0 view .LVU149
 1063 0000 7047     		bx	lr
 1064              		.cfi_endproc
 1065              	.LFE179:
 1067              		.section	.text.aci_l2cap_connection_update_resp_event,"ax",%progbits
 1068              		.align	1
 1069              		.weak	aci_l2cap_connection_update_resp_event
 1070              		.syntax unified
 1071              		.thumb
 1072              		.thumb_func
 1074              	aci_l2cap_connection_update_resp_event:
 1075              	.LVL47:
 1076              	.LFB180:
1346:Middlewares/ST/BlueNRG-2/hci/bluenrg1_events_cb.c **** /**
1347:Middlewares/ST/BlueNRG-2/hci/bluenrg1_events_cb.c ****  * @}
1348:Middlewares/ST/BlueNRG-2/hci/bluenrg1_events_cb.c ****  */
1349:Middlewares/ST/BlueNRG-2/hci/bluenrg1_events_cb.c **** /**
1350:Middlewares/ST/BlueNRG-2/hci/bluenrg1_events_cb.c ****  *@defgroup ACI_L2CAP_events ACI L2CAP events
1351:Middlewares/ST/BlueNRG-2/hci/bluenrg1_events_cb.c ****  *@brief ACI L2CAP events layer.
1352:Middlewares/ST/BlueNRG-2/hci/bluenrg1_events_cb.c ****  *@{
1353:Middlewares/ST/BlueNRG-2/hci/bluenrg1_events_cb.c ****  */
1354:Middlewares/ST/BlueNRG-2/hci/bluenrg1_events_cb.c **** /* ACI L2CAP events */
1355:Middlewares/ST/BlueNRG-2/hci/bluenrg1_events_cb.c **** /**
1356:Middlewares/ST/BlueNRG-2/hci/bluenrg1_events_cb.c ****   * @brief This event is generated when the master responds to the connection update request packet
1357:Middlewares/ST/BlueNRG-2/hci/bluenrg1_events_cb.c **** with a connection update response packet.
1358:Middlewares/ST/BlueNRG-2/hci/bluenrg1_events_cb.c ****   * @param Connection_Handle Connection handle referring to the COS Channel where the Disconnection
1359:Middlewares/ST/BlueNRG-2/hci/bluenrg1_events_cb.c ****   * @param Result 
1360:Middlewares/ST/BlueNRG-2/hci/bluenrg1_events_cb.c ****   * @retval None
1361:Middlewares/ST/BlueNRG-2/hci/bluenrg1_events_cb.c **** */
1362:Middlewares/ST/BlueNRG-2/hci/bluenrg1_events_cb.c **** WEAK_FUNCTION(void aci_l2cap_connection_update_resp_event(uint16_t Connection_Handle,
ARM GAS  C:\Users\zafee\AppData\Local\Temp\ccvOQAyH.s 			page 42


1363:Middlewares/ST/BlueNRG-2/hci/bluenrg1_events_cb.c ****                                             uint16_t Result))
1364:Middlewares/ST/BlueNRG-2/hci/bluenrg1_events_cb.c **** {
 1077              		.loc 1 1364 1 is_stmt 1 view -0
 1078              		.cfi_startproc
 1079              		@ args = 0, pretend = 0, frame = 0
 1080              		@ frame_needed = 0, uses_anonymous_args = 0
 1081              		@ link register save eliminated.
1365:Middlewares/ST/BlueNRG-2/hci/bluenrg1_events_cb.c ****   /* NOTE : This function Should not be modified, when needed,
1366:Middlewares/ST/BlueNRG-2/hci/bluenrg1_events_cb.c ****             the callback could be implemented in the user file
1367:Middlewares/ST/BlueNRG-2/hci/bluenrg1_events_cb.c ****    */
1368:Middlewares/ST/BlueNRG-2/hci/bluenrg1_events_cb.c ****   BLUENRG_PRINTF("aci_l2cap_connection_update_resp_event\r\n");
 1082              		.loc 1 1368 63 view .LVU151
1369:Middlewares/ST/BlueNRG-2/hci/bluenrg1_events_cb.c **** }
 1083              		.loc 1 1369 1 is_stmt 0 view .LVU152
 1084 0000 7047     		bx	lr
 1085              		.cfi_endproc
 1086              	.LFE180:
 1088              		.section	.text.aci_l2cap_proc_timeout_event,"ax",%progbits
 1089              		.align	1
 1090              		.weak	aci_l2cap_proc_timeout_event
 1091              		.syntax unified
 1092              		.thumb
 1093              		.thumb_func
 1095              	aci_l2cap_proc_timeout_event:
 1096              	.LVL48:
 1097              	.LFB181:
1370:Middlewares/ST/BlueNRG-2/hci/bluenrg1_events_cb.c **** /**
1371:Middlewares/ST/BlueNRG-2/hci/bluenrg1_events_cb.c ****   * @brief This event is generated when the master does not respond to the connection update
1372:Middlewares/ST/BlueNRG-2/hci/bluenrg1_events_cb.c **** request packet with a connection update response packet or a command reject packet
1373:Middlewares/ST/BlueNRG-2/hci/bluenrg1_events_cb.c **** within 30 seconds.
1374:Middlewares/ST/BlueNRG-2/hci/bluenrg1_events_cb.c ****   * @param Connection_Handle Handle of the connection related to this
1375:Middlewares/ST/BlueNRG-2/hci/bluenrg1_events_cb.c **** L2CAP procedure.
1376:Middlewares/ST/BlueNRG-2/hci/bluenrg1_events_cb.c ****   * @param Data_Length Length of following data
1377:Middlewares/ST/BlueNRG-2/hci/bluenrg1_events_cb.c ****   * @param Data 
1378:Middlewares/ST/BlueNRG-2/hci/bluenrg1_events_cb.c ****   * @retval None
1379:Middlewares/ST/BlueNRG-2/hci/bluenrg1_events_cb.c **** */
1380:Middlewares/ST/BlueNRG-2/hci/bluenrg1_events_cb.c **** WEAK_FUNCTION(void aci_l2cap_proc_timeout_event(uint16_t Connection_Handle,
1381:Middlewares/ST/BlueNRG-2/hci/bluenrg1_events_cb.c ****                                   uint8_t Data_Length,
1382:Middlewares/ST/BlueNRG-2/hci/bluenrg1_events_cb.c ****                                   uint8_t Data[]))
1383:Middlewares/ST/BlueNRG-2/hci/bluenrg1_events_cb.c **** {
 1098              		.loc 1 1383 1 is_stmt 1 view -0
 1099              		.cfi_startproc
 1100              		@ args = 0, pretend = 0, frame = 0
 1101              		@ frame_needed = 0, uses_anonymous_args = 0
 1102              		@ link register save eliminated.
1384:Middlewares/ST/BlueNRG-2/hci/bluenrg1_events_cb.c ****   /* NOTE : This function Should not be modified, when needed,
1385:Middlewares/ST/BlueNRG-2/hci/bluenrg1_events_cb.c ****             the callback could be implemented in the user file
1386:Middlewares/ST/BlueNRG-2/hci/bluenrg1_events_cb.c ****    */
1387:Middlewares/ST/BlueNRG-2/hci/bluenrg1_events_cb.c ****   BLUENRG_PRINTF("aci_l2cap_proc_timeout_event\r\n");
 1103              		.loc 1 1387 53 view .LVU154
1388:Middlewares/ST/BlueNRG-2/hci/bluenrg1_events_cb.c **** }
 1104              		.loc 1 1388 1 is_stmt 0 view .LVU155
 1105 0000 7047     		bx	lr
 1106              		.cfi_endproc
 1107              	.LFE181:
 1109              		.section	.text.aci_l2cap_connection_update_req_event,"ax",%progbits
 1110              		.align	1
ARM GAS  C:\Users\zafee\AppData\Local\Temp\ccvOQAyH.s 			page 43


 1111              		.weak	aci_l2cap_connection_update_req_event
 1112              		.syntax unified
 1113              		.thumb
 1114              		.thumb_func
 1116              	aci_l2cap_connection_update_req_event:
 1117              	.LVL49:
 1118              	.LFB182:
1389:Middlewares/ST/BlueNRG-2/hci/bluenrg1_events_cb.c **** /**
1390:Middlewares/ST/BlueNRG-2/hci/bluenrg1_events_cb.c ****   * @brief The event is given by the L2CAP layer when a connection update request is received from
1391:Middlewares/ST/BlueNRG-2/hci/bluenrg1_events_cb.c **** the slave. The upper layer which receives this event has to respond by sending a
1392:Middlewares/ST/BlueNRG-2/hci/bluenrg1_events_cb.c **** @ref aci_l2cap_connection_parameter_update_resp command.
1393:Middlewares/ST/BlueNRG-2/hci/bluenrg1_events_cb.c ****   * @param Connection_Handle Handle of the connection related to this
1394:Middlewares/ST/BlueNRG-2/hci/bluenrg1_events_cb.c **** L2CAP procedure.
1395:Middlewares/ST/BlueNRG-2/hci/bluenrg1_events_cb.c ****   * @param Identifier This is the identifier which associate the request to the
1396:Middlewares/ST/BlueNRG-2/hci/bluenrg1_events_cb.c **** response.
1397:Middlewares/ST/BlueNRG-2/hci/bluenrg1_events_cb.c ****   * @param L2CAP_Length Length of the L2CAP connection update request.
1398:Middlewares/ST/BlueNRG-2/hci/bluenrg1_events_cb.c ****   * @param Interval_Min Minimum value for the connection event interval. This shall be less
1399:Middlewares/ST/BlueNRG-2/hci/bluenrg1_events_cb.c **** than or equal to Conn_Interval_Max.
1400:Middlewares/ST/BlueNRG-2/hci/bluenrg1_events_cb.c **** Time = N * 1.25 msec.
1401:Middlewares/ST/BlueNRG-2/hci/bluenrg1_events_cb.c ****   * Values:
1402:Middlewares/ST/BlueNRG-2/hci/bluenrg1_events_cb.c ****   - 0x0006 (7.50 ms)  ... 0x0C80 (4000.00 ms) 
1403:Middlewares/ST/BlueNRG-2/hci/bluenrg1_events_cb.c ****   * @param Interval_Max Maximum value for the connection event interval. This shall be
1404:Middlewares/ST/BlueNRG-2/hci/bluenrg1_events_cb.c **** greater than or equal to Conn_Interval_Min.
1405:Middlewares/ST/BlueNRG-2/hci/bluenrg1_events_cb.c **** Time = N * 1.25 msec.
1406:Middlewares/ST/BlueNRG-2/hci/bluenrg1_events_cb.c ****   * Values:
1407:Middlewares/ST/BlueNRG-2/hci/bluenrg1_events_cb.c ****   - 0x0006 (7.50 ms)  ... 0x0C80 (4000.00 ms) 
1408:Middlewares/ST/BlueNRG-2/hci/bluenrg1_events_cb.c ****   * @param Slave_Latency Slave latency for the connection in number of connection events.
1409:Middlewares/ST/BlueNRG-2/hci/bluenrg1_events_cb.c ****   * Values:
1410:Middlewares/ST/BlueNRG-2/hci/bluenrg1_events_cb.c ****   - 0x0000 ... 0x01F3
1411:Middlewares/ST/BlueNRG-2/hci/bluenrg1_events_cb.c ****   * @param Timeout_Multiplier Defines connection timeout parameter in the following manner: Timeout
1412:Middlewares/ST/BlueNRG-2/hci/bluenrg1_events_cb.c ****   * @retval None
1413:Middlewares/ST/BlueNRG-2/hci/bluenrg1_events_cb.c **** */
1414:Middlewares/ST/BlueNRG-2/hci/bluenrg1_events_cb.c **** WEAK_FUNCTION(void aci_l2cap_connection_update_req_event(uint16_t Connection_Handle,
1415:Middlewares/ST/BlueNRG-2/hci/bluenrg1_events_cb.c ****                                            uint8_t Identifier,
1416:Middlewares/ST/BlueNRG-2/hci/bluenrg1_events_cb.c ****                                            uint16_t L2CAP_Length,
1417:Middlewares/ST/BlueNRG-2/hci/bluenrg1_events_cb.c ****                                            uint16_t Interval_Min,
1418:Middlewares/ST/BlueNRG-2/hci/bluenrg1_events_cb.c ****                                            uint16_t Interval_Max,
1419:Middlewares/ST/BlueNRG-2/hci/bluenrg1_events_cb.c ****                                            uint16_t Slave_Latency,
1420:Middlewares/ST/BlueNRG-2/hci/bluenrg1_events_cb.c ****                                            uint16_t Timeout_Multiplier))
1421:Middlewares/ST/BlueNRG-2/hci/bluenrg1_events_cb.c **** {
 1119              		.loc 1 1421 1 is_stmt 1 view -0
 1120              		.cfi_startproc
 1121              		@ args = 12, pretend = 0, frame = 0
 1122              		@ frame_needed = 0, uses_anonymous_args = 0
 1123              		@ link register save eliminated.
1422:Middlewares/ST/BlueNRG-2/hci/bluenrg1_events_cb.c ****   /* NOTE : This function Should not be modified, when needed,
1423:Middlewares/ST/BlueNRG-2/hci/bluenrg1_events_cb.c ****             the callback could be implemented in the user file
1424:Middlewares/ST/BlueNRG-2/hci/bluenrg1_events_cb.c ****    */
1425:Middlewares/ST/BlueNRG-2/hci/bluenrg1_events_cb.c ****   BLUENRG_PRINTF("aci_l2cap_connection_update_req_event\r\n");
 1124              		.loc 1 1425 62 view .LVU157
1426:Middlewares/ST/BlueNRG-2/hci/bluenrg1_events_cb.c **** }
 1125              		.loc 1 1426 1 is_stmt 0 view .LVU158
 1126 0000 7047     		bx	lr
 1127              		.cfi_endproc
 1128              	.LFE182:
 1130              		.section	.text.aci_l2cap_command_reject_event,"ax",%progbits
 1131              		.align	1
ARM GAS  C:\Users\zafee\AppData\Local\Temp\ccvOQAyH.s 			page 44


 1132              		.weak	aci_l2cap_command_reject_event
 1133              		.syntax unified
 1134              		.thumb
 1135              		.thumb_func
 1137              	aci_l2cap_command_reject_event:
 1138              	.LVL50:
 1139              	.LFB183:
1427:Middlewares/ST/BlueNRG-2/hci/bluenrg1_events_cb.c **** /**
1428:Middlewares/ST/BlueNRG-2/hci/bluenrg1_events_cb.c ****   * @brief This event is generated when the master responds to the connection update request packet
1429:Middlewares/ST/BlueNRG-2/hci/bluenrg1_events_cb.c **** with a command reject packet.
1430:Middlewares/ST/BlueNRG-2/hci/bluenrg1_events_cb.c ****   * @param Connection_Handle Connection handle referring to the COS Channel where the Disconnection
1431:Middlewares/ST/BlueNRG-2/hci/bluenrg1_events_cb.c ****   * @param Identifier This is the identifier which associate the request to the
1432:Middlewares/ST/BlueNRG-2/hci/bluenrg1_events_cb.c **** response.
1433:Middlewares/ST/BlueNRG-2/hci/bluenrg1_events_cb.c ****   * @param Reason Reason
1434:Middlewares/ST/BlueNRG-2/hci/bluenrg1_events_cb.c ****   * @param Data_Length Length of following data
1435:Middlewares/ST/BlueNRG-2/hci/bluenrg1_events_cb.c ****   * @param Data Data field associated with Reason
1436:Middlewares/ST/BlueNRG-2/hci/bluenrg1_events_cb.c ****   * @retval None
1437:Middlewares/ST/BlueNRG-2/hci/bluenrg1_events_cb.c **** */
1438:Middlewares/ST/BlueNRG-2/hci/bluenrg1_events_cb.c **** WEAK_FUNCTION(void aci_l2cap_command_reject_event(uint16_t Connection_Handle,
1439:Middlewares/ST/BlueNRG-2/hci/bluenrg1_events_cb.c ****                                     uint8_t Identifier,
1440:Middlewares/ST/BlueNRG-2/hci/bluenrg1_events_cb.c ****                                     uint16_t Reason,
1441:Middlewares/ST/BlueNRG-2/hci/bluenrg1_events_cb.c ****                                     uint8_t Data_Length,
1442:Middlewares/ST/BlueNRG-2/hci/bluenrg1_events_cb.c ****                                     uint8_t Data[]))
1443:Middlewares/ST/BlueNRG-2/hci/bluenrg1_events_cb.c **** {
 1140              		.loc 1 1443 1 is_stmt 1 view -0
 1141              		.cfi_startproc
 1142              		@ args = 4, pretend = 0, frame = 0
 1143              		@ frame_needed = 0, uses_anonymous_args = 0
 1144              		@ link register save eliminated.
1444:Middlewares/ST/BlueNRG-2/hci/bluenrg1_events_cb.c ****   /* NOTE : This function Should not be modified, when needed,
1445:Middlewares/ST/BlueNRG-2/hci/bluenrg1_events_cb.c ****             the callback could be implemented in the user file
1446:Middlewares/ST/BlueNRG-2/hci/bluenrg1_events_cb.c ****    */
1447:Middlewares/ST/BlueNRG-2/hci/bluenrg1_events_cb.c ****   BLUENRG_PRINTF("aci_l2cap_command_reject_event\r\n");
 1145              		.loc 1 1447 55 view .LVU160
1448:Middlewares/ST/BlueNRG-2/hci/bluenrg1_events_cb.c **** }
 1146              		.loc 1 1448 1 is_stmt 0 view .LVU161
 1147 0000 7047     		bx	lr
 1148              		.cfi_endproc
 1149              	.LFE183:
 1151              		.section	.text.aci_blue_initialized_event,"ax",%progbits
 1152              		.align	1
 1153              		.weak	aci_blue_initialized_event
 1154              		.syntax unified
 1155              		.thumb
 1156              		.thumb_func
 1158              	aci_blue_initialized_event:
 1159              	.LVL51:
 1160              	.LFB184:
1449:Middlewares/ST/BlueNRG-2/hci/bluenrg1_events_cb.c **** /**
1450:Middlewares/ST/BlueNRG-2/hci/bluenrg1_events_cb.c ****  * @}
1451:Middlewares/ST/BlueNRG-2/hci/bluenrg1_events_cb.c ****  */
1452:Middlewares/ST/BlueNRG-2/hci/bluenrg1_events_cb.c **** /**
1453:Middlewares/ST/BlueNRG-2/hci/bluenrg1_events_cb.c ****  *@defgroup ACI_HAL_events ACI HAL events
1454:Middlewares/ST/BlueNRG-2/hci/bluenrg1_events_cb.c ****  *@brief ACI HAL events layer.
1455:Middlewares/ST/BlueNRG-2/hci/bluenrg1_events_cb.c ****  *@{
1456:Middlewares/ST/BlueNRG-2/hci/bluenrg1_events_cb.c ****  */
1457:Middlewares/ST/BlueNRG-2/hci/bluenrg1_events_cb.c **** /* ACI HAL events */
ARM GAS  C:\Users\zafee\AppData\Local\Temp\ccvOQAyH.s 			page 45


1458:Middlewares/ST/BlueNRG-2/hci/bluenrg1_events_cb.c **** /**
1459:Middlewares/ST/BlueNRG-2/hci/bluenrg1_events_cb.c ****   * @brief This event inform the application that the network coprocessor has been reset. If the re
1460:Middlewares/ST/BlueNRG-2/hci/bluenrg1_events_cb.c **** a following event @ref aci_blue_crash_info_event will provide more information regarding the system
1461:Middlewares/ST/BlueNRG-2/hci/bluenrg1_events_cb.c ****   * @param Reason_Code Reason code describing why device was reset and in which mode is operating (
1462:Middlewares/ST/BlueNRG-2/hci/bluenrg1_events_cb.c ****   * Values:
1463:Middlewares/ST/BlueNRG-2/hci/bluenrg1_events_cb.c ****   - 0x01: Firmware started properly
1464:Middlewares/ST/BlueNRG-2/hci/bluenrg1_events_cb.c ****   - 0x02: Updater mode entered with ACI command
1465:Middlewares/ST/BlueNRG-2/hci/bluenrg1_events_cb.c ****   - 0x03: Updater mode entered due to bad Blue Flag
1466:Middlewares/ST/BlueNRG-2/hci/bluenrg1_events_cb.c ****   - 0x04: Updater mode entered due to IRQ pin
1467:Middlewares/ST/BlueNRG-2/hci/bluenrg1_events_cb.c ****   - 0x05: System reset due to watchdog
1468:Middlewares/ST/BlueNRG-2/hci/bluenrg1_events_cb.c ****   - 0x06: System reset due to lockup
1469:Middlewares/ST/BlueNRG-2/hci/bluenrg1_events_cb.c ****   - 0x07: System reset due to brownout reset
1470:Middlewares/ST/BlueNRG-2/hci/bluenrg1_events_cb.c ****   - 0x08: System reset due to crash
1471:Middlewares/ST/BlueNRG-2/hci/bluenrg1_events_cb.c ****   - 0x09: System reset due to ECC error
1472:Middlewares/ST/BlueNRG-2/hci/bluenrg1_events_cb.c ****   * @retval None
1473:Middlewares/ST/BlueNRG-2/hci/bluenrg1_events_cb.c **** */
1474:Middlewares/ST/BlueNRG-2/hci/bluenrg1_events_cb.c **** WEAK_FUNCTION(void aci_blue_initialized_event(uint8_t Reason_Code))
1475:Middlewares/ST/BlueNRG-2/hci/bluenrg1_events_cb.c **** {
 1161              		.loc 1 1475 1 is_stmt 1 view -0
 1162              		.cfi_startproc
 1163              		@ args = 0, pretend = 0, frame = 0
 1164              		@ frame_needed = 0, uses_anonymous_args = 0
 1165              		@ link register save eliminated.
1476:Middlewares/ST/BlueNRG-2/hci/bluenrg1_events_cb.c ****   /* NOTE : This function Should not be modified, when needed,
1477:Middlewares/ST/BlueNRG-2/hci/bluenrg1_events_cb.c ****             the callback could be implemented in the user file
1478:Middlewares/ST/BlueNRG-2/hci/bluenrg1_events_cb.c ****    */
1479:Middlewares/ST/BlueNRG-2/hci/bluenrg1_events_cb.c ****   BLUENRG_PRINTF("aci_blue_initialized_event Reason_Code=%x\r\n",Reason_Code);
 1166              		.loc 1 1479 78 view .LVU163
1480:Middlewares/ST/BlueNRG-2/hci/bluenrg1_events_cb.c **** }
 1167              		.loc 1 1480 1 is_stmt 0 view .LVU164
 1168 0000 7047     		bx	lr
 1169              		.cfi_endproc
 1170              	.LFE184:
 1172              		.section	.text.aci_blue_events_lost_event,"ax",%progbits
 1173              		.align	1
 1174              		.weak	aci_blue_events_lost_event
 1175              		.syntax unified
 1176              		.thumb
 1177              		.thumb_func
 1179              	aci_blue_events_lost_event:
 1180              	.LVL52:
 1181              	.LFB185:
1481:Middlewares/ST/BlueNRG-2/hci/bluenrg1_events_cb.c **** /**
1482:Middlewares/ST/BlueNRG-2/hci/bluenrg1_events_cb.c ****   * @brief 'This event is generated when an overflow occurs in the event queue read by the
1483:Middlewares/ST/BlueNRG-2/hci/bluenrg1_events_cb.c **** external microcontroller. This is normally caused when the external microcontroller does 
1484:Middlewares/ST/BlueNRG-2/hci/bluenrg1_events_cb.c **** not read pending events. The returned bitmap indicates which event has been lost. Please
1485:Middlewares/ST/BlueNRG-2/hci/bluenrg1_events_cb.c ****  note that one bit set to 1 indicates one or more occurrences of the particular events.
1486:Middlewares/ST/BlueNRG-2/hci/bluenrg1_events_cb.c **** The event ACI_BLUE_EVENTS_LOST_EVENT cannot be lost and it will inserted in the
1487:Middlewares/ST/BlueNRG-2/hci/bluenrg1_events_cb.c **** event queue as soon as a position is freed in the event queue. This event should not happen under n
1488:Middlewares/ST/BlueNRG-2/hci/bluenrg1_events_cb.c **** operating condition where external microcontroller promptly reads events signaled by IRQ pin.
1489:Middlewares/ST/BlueNRG-2/hci/bluenrg1_events_cb.c **** It is provided to detected unexpected behavior of the external microcontroller or to
1490:Middlewares/ST/BlueNRG-2/hci/bluenrg1_events_cb.c **** allow application to recover situations where critical events are lost.
1491:Middlewares/ST/BlueNRG-2/hci/bluenrg1_events_cb.c ****   * @param Lost_Events Bitmap of lost events. Each bit indicates one or more occurrences of the spe
1492:Middlewares/ST/BlueNRG-2/hci/bluenrg1_events_cb.c ****   * Flags:
1493:Middlewares/ST/BlueNRG-2/hci/bluenrg1_events_cb.c ****   - 0x0000000000000001: HCI_DISCONNECTION_COMPLETE_EVENT
1494:Middlewares/ST/BlueNRG-2/hci/bluenrg1_events_cb.c ****   - 0x0000000000000002: HCI_ENCRYPTION_CHANGE_EVENT
1495:Middlewares/ST/BlueNRG-2/hci/bluenrg1_events_cb.c ****   - 0x0000000000000004: HCI_READ_REMOTE_VERSION_INFORMATION_COMPLETE_EVENT
ARM GAS  C:\Users\zafee\AppData\Local\Temp\ccvOQAyH.s 			page 46


1496:Middlewares/ST/BlueNRG-2/hci/bluenrg1_events_cb.c ****   - 0x0000000000000008: HCI_COMMAND_COMPLETE_EVENT
1497:Middlewares/ST/BlueNRG-2/hci/bluenrg1_events_cb.c ****   - 0x0000000000000010: HCI_COMMAND_STATUS_EVENT
1498:Middlewares/ST/BlueNRG-2/hci/bluenrg1_events_cb.c ****   - 0x0000000000000020: HCI_HARDWARE_ERROR_EVENT
1499:Middlewares/ST/BlueNRG-2/hci/bluenrg1_events_cb.c ****   - 0x0000000000000040: HCI_NUMBER_OF_COMPLETED_PACKETS_EVENT
1500:Middlewares/ST/BlueNRG-2/hci/bluenrg1_events_cb.c ****   - 0x0000000000000080: HCI_ENCRYPTION_KEY_REFRESH_COMPLETE_EVENT
1501:Middlewares/ST/BlueNRG-2/hci/bluenrg1_events_cb.c ****   - 0x0000000000000100: ACI_BLUE_INITIALIZED_EVENT
1502:Middlewares/ST/BlueNRG-2/hci/bluenrg1_events_cb.c ****   - 0x0000000000000200: ACI_GAP_LIMITED_DISCOVERABLE_EVENT
1503:Middlewares/ST/BlueNRG-2/hci/bluenrg1_events_cb.c ****   - 0x0000000000000400: ACI_GAP_PAIRING_COMPLETE_EVENT
1504:Middlewares/ST/BlueNRG-2/hci/bluenrg1_events_cb.c ****   - 0x0000000000000800: ACI_GAP_PASS_KEY_REQ_EVENT
1505:Middlewares/ST/BlueNRG-2/hci/bluenrg1_events_cb.c ****   - 0x0000000000001000: ACI_GAP_AUTHORIZATION_REQ_EVENT
1506:Middlewares/ST/BlueNRG-2/hci/bluenrg1_events_cb.c ****   - 0x0000000000002000: ACI_GAP_SLAVE_SECURITY_INITIATED_EVENT
1507:Middlewares/ST/BlueNRG-2/hci/bluenrg1_events_cb.c ****   - 0x0000000000004000: ACI_GAP_BOND_LOST_EVENT
1508:Middlewares/ST/BlueNRG-2/hci/bluenrg1_events_cb.c ****   - 0x0000000000008000: ACI_GAP_PROC_COMPLETE_EVENT
1509:Middlewares/ST/BlueNRG-2/hci/bluenrg1_events_cb.c ****   - 0x0000000000010000: ACI_GAP_ADDR_NOT_RESOLVED_EVENT
1510:Middlewares/ST/BlueNRG-2/hci/bluenrg1_events_cb.c ****   - 0x0000000000020000: ACI_L2CAP_CONNECTION_UPDATE_RESP_EVENT
1511:Middlewares/ST/BlueNRG-2/hci/bluenrg1_events_cb.c ****   - 0x0000000000040000: ACI_L2CAP_PROC_TIMEOUT_EVENT
1512:Middlewares/ST/BlueNRG-2/hci/bluenrg1_events_cb.c ****   - 0x0000000000080000: ACI_L2CAP_CONNECTION_UPDATE_REQ_EVENT
1513:Middlewares/ST/BlueNRG-2/hci/bluenrg1_events_cb.c ****   - 0x0000000000100000: ACI_GATT_ATTRIBUTE_MODIFIED_EVENT
1514:Middlewares/ST/BlueNRG-2/hci/bluenrg1_events_cb.c ****   - 0x0000000000200000: ACI_GATT_PROC_TIMEOUT_EVENT
1515:Middlewares/ST/BlueNRG-2/hci/bluenrg1_events_cb.c ****   - 0x0000000000400000: ACI_ATT_EXCHANGE_MTU_RESP_EVENT
1516:Middlewares/ST/BlueNRG-2/hci/bluenrg1_events_cb.c ****   - 0x0000000000800000: ACI_ATT_FIND_INFO_RESP_EVENT
1517:Middlewares/ST/BlueNRG-2/hci/bluenrg1_events_cb.c ****   - 0x0000000001000000: ACI_ATT_FIND_BY_TYPE_VALUE_RESP_EVENT
1518:Middlewares/ST/BlueNRG-2/hci/bluenrg1_events_cb.c ****   - 0x0000000002000000: ACI_ATT_READ_BY_TYPE_RESP_EVENT
1519:Middlewares/ST/BlueNRG-2/hci/bluenrg1_events_cb.c ****   - 0x0000000004000000: ACI_ATT_READ_RESP_EVENT
1520:Middlewares/ST/BlueNRG-2/hci/bluenrg1_events_cb.c ****   - 0x0000000008000000: ACI_ATT_READ_BLOB_RESP_EVENT
1521:Middlewares/ST/BlueNRG-2/hci/bluenrg1_events_cb.c ****   - 0x0000000010000000: ACI_ATT_READ_MULTIPLE_RESP_EVENT
1522:Middlewares/ST/BlueNRG-2/hci/bluenrg1_events_cb.c ****   - 0x0000000020000000: ACI_ATT_READ_BY_GROUP_TYPE_RESP_EVENT
1523:Middlewares/ST/BlueNRG-2/hci/bluenrg1_events_cb.c ****   - 0x0000000040000000: ACI_ATT_WRITE_RESP_EVENT
1524:Middlewares/ST/BlueNRG-2/hci/bluenrg1_events_cb.c ****   - 0x0000000080000000: ACI_ATT_PREPARE_WRITE_RESP_EVENT
1525:Middlewares/ST/BlueNRG-2/hci/bluenrg1_events_cb.c ****   - 0x0000000100000000: ACI_ATT_EXEC_WRITE_RESP_EVENT
1526:Middlewares/ST/BlueNRG-2/hci/bluenrg1_events_cb.c ****   - 0x0000000200000000: ACI_GATT_INDICATION_EVENT
1527:Middlewares/ST/BlueNRG-2/hci/bluenrg1_events_cb.c ****   - 0x0000000400000000: ACI_GATT_NOTIFICATION_EVENT
1528:Middlewares/ST/BlueNRG-2/hci/bluenrg1_events_cb.c ****   - 0x0000000800000000: ACI_GATT_PROC_COMPLETE_EVENT
1529:Middlewares/ST/BlueNRG-2/hci/bluenrg1_events_cb.c ****   - 0x0000001000000000: ACI_GATT_ERROR_RESP_EVENT
1530:Middlewares/ST/BlueNRG-2/hci/bluenrg1_events_cb.c ****   - 0x0000002000000000: ACI_GATT_DISC_READ_CHAR_BY_UUID_RESP_EVENT
1531:Middlewares/ST/BlueNRG-2/hci/bluenrg1_events_cb.c ****   - 0x0000004000000000: ACI_GATT_WRITE_PERMIT_REQ_EVENT
1532:Middlewares/ST/BlueNRG-2/hci/bluenrg1_events_cb.c ****   - 0x0000008000000000: ACI_GATT_READ_PERMIT_REQ_EVENT
1533:Middlewares/ST/BlueNRG-2/hci/bluenrg1_events_cb.c ****   - 0x0000010000000000: ACI_GATT_READ_MULTI_PERMIT_REQ_EVENT
1534:Middlewares/ST/BlueNRG-2/hci/bluenrg1_events_cb.c ****   - 0x0000020000000000: ACI_GATT_TX_POOL_AVAILABLE_EVENT
1535:Middlewares/ST/BlueNRG-2/hci/bluenrg1_events_cb.c ****   - 0x0000040000000000: ACI_GATT_SERVER_CONFIRMATION_EVENT
1536:Middlewares/ST/BlueNRG-2/hci/bluenrg1_events_cb.c ****   - 0x0000080000000000: ACI_GATT_PREPARE_WRITE_PERMIT_REQ_EVENT
1537:Middlewares/ST/BlueNRG-2/hci/bluenrg1_events_cb.c ****   - 0x0000100000000000: HCI_LE_CONNECTION_COMPLETE_EVENT
1538:Middlewares/ST/BlueNRG-2/hci/bluenrg1_events_cb.c ****   - 0x0000200000000000: HCI_LE_ADVERTISING_REPORT_EVENT
1539:Middlewares/ST/BlueNRG-2/hci/bluenrg1_events_cb.c ****   - 0x0000400000000000: HCI_LE_CONNECTION_UPDATE_COMPLETE_EVENT
1540:Middlewares/ST/BlueNRG-2/hci/bluenrg1_events_cb.c ****   - 0x0000800000000000: HCI_LE_READ_REMOTE_USED_FEATURES_COMPLETE_EVENT
1541:Middlewares/ST/BlueNRG-2/hci/bluenrg1_events_cb.c ****   - 0x0001000000000000: HCI_LE_LONG_TERM_KEY_REQUEST_EVENT
1542:Middlewares/ST/BlueNRG-2/hci/bluenrg1_events_cb.c ****   - 0x0002000000000000: HCI_LE_DATA_LENGTH_CHANGE_EVENT
1543:Middlewares/ST/BlueNRG-2/hci/bluenrg1_events_cb.c ****   - 0x0004000000000000: HCI_LE_READ_LOCAL_P256_PUBLIC_KEY_COMPLETE_EVENT
1544:Middlewares/ST/BlueNRG-2/hci/bluenrg1_events_cb.c ****   - 0x0008000000000000: HCI_LE_GENERATE_DHKEY_COMPLETE_EVENT
1545:Middlewares/ST/BlueNRG-2/hci/bluenrg1_events_cb.c ****   - 0x0010000000000000: HCI_LE_ENHANCED_CONNECTION_COMPLETE_EVENT
1546:Middlewares/ST/BlueNRG-2/hci/bluenrg1_events_cb.c ****   - 0x0020000000000000: HCI_LE_DIRECT_ADVERTISING_REPORT_EVENT
1547:Middlewares/ST/BlueNRG-2/hci/bluenrg1_events_cb.c ****   - 0x0040000000000000: ACI_GAP_NUMERIC_COMPARISON_VALUE_EVENT
1548:Middlewares/ST/BlueNRG-2/hci/bluenrg1_events_cb.c ****   - 0x0080000000000000: ACI_GAP_KEYPRESS_NOTIFICATION_EVENT
1549:Middlewares/ST/BlueNRG-2/hci/bluenrg1_events_cb.c ****   * @retval None
1550:Middlewares/ST/BlueNRG-2/hci/bluenrg1_events_cb.c **** */
1551:Middlewares/ST/BlueNRG-2/hci/bluenrg1_events_cb.c **** WEAK_FUNCTION(void aci_blue_events_lost_event(uint8_t Lost_Events[8]))
1552:Middlewares/ST/BlueNRG-2/hci/bluenrg1_events_cb.c **** {
ARM GAS  C:\Users\zafee\AppData\Local\Temp\ccvOQAyH.s 			page 47


 1182              		.loc 1 1552 1 is_stmt 1 view -0
 1183              		.cfi_startproc
 1184              		@ args = 0, pretend = 0, frame = 0
 1185              		@ frame_needed = 0, uses_anonymous_args = 0
 1186              		@ link register save eliminated.
1553:Middlewares/ST/BlueNRG-2/hci/bluenrg1_events_cb.c ****   /* NOTE : This function Should not be modified, when needed,
1554:Middlewares/ST/BlueNRG-2/hci/bluenrg1_events_cb.c ****             the callback could be implemented in the user file
1555:Middlewares/ST/BlueNRG-2/hci/bluenrg1_events_cb.c ****    */
1556:Middlewares/ST/BlueNRG-2/hci/bluenrg1_events_cb.c ****   BLUENRG_PRINTF("aci_blue_events_lost_event\r\n");
 1187              		.loc 1 1556 51 view .LVU166
1557:Middlewares/ST/BlueNRG-2/hci/bluenrg1_events_cb.c **** }
 1188              		.loc 1 1557 1 is_stmt 0 view .LVU167
 1189 0000 7047     		bx	lr
 1190              		.cfi_endproc
 1191              	.LFE185:
 1193              		.section	.text.aci_blue_crash_info_event,"ax",%progbits
 1194              		.align	1
 1195              		.weak	aci_blue_crash_info_event
 1196              		.syntax unified
 1197              		.thumb
 1198              		.thumb_func
 1200              	aci_blue_crash_info_event:
 1201              	.LVL53:
 1202              	.LFB186:
1558:Middlewares/ST/BlueNRG-2/hci/bluenrg1_events_cb.c **** /**
1559:Middlewares/ST/BlueNRG-2/hci/bluenrg1_events_cb.c ****   * @brief 'This event is given to the application after the @ref aci_blue_initialized_event
1560:Middlewares/ST/BlueNRG-2/hci/bluenrg1_events_cb.c **** when a system crash is detected. This events returns system crash information for debugging purpose
1561:Middlewares/ST/BlueNRG-2/hci/bluenrg1_events_cb.c **** Information reported are useful to understand the root cause of the crash.
1562:Middlewares/ST/BlueNRG-2/hci/bluenrg1_events_cb.c ****   * @param Crash_Type Crash type
1563:Middlewares/ST/BlueNRG-2/hci/bluenrg1_events_cb.c ****   * Values:
1564:Middlewares/ST/BlueNRG-2/hci/bluenrg1_events_cb.c ****   - 0x00: Assert failed
1565:Middlewares/ST/BlueNRG-2/hci/bluenrg1_events_cb.c ****   - 0x01: NMI fault
1566:Middlewares/ST/BlueNRG-2/hci/bluenrg1_events_cb.c ****   - 0x02: Hard fault
1567:Middlewares/ST/BlueNRG-2/hci/bluenrg1_events_cb.c ****   * @param SP Stack pointer
1568:Middlewares/ST/BlueNRG-2/hci/bluenrg1_events_cb.c ****   * @param R0 Register R0
1569:Middlewares/ST/BlueNRG-2/hci/bluenrg1_events_cb.c ****   * @param R1 Register R1
1570:Middlewares/ST/BlueNRG-2/hci/bluenrg1_events_cb.c ****   * @param R2 Register R2
1571:Middlewares/ST/BlueNRG-2/hci/bluenrg1_events_cb.c ****   * @param R3 Register R3
1572:Middlewares/ST/BlueNRG-2/hci/bluenrg1_events_cb.c ****   * @param R12 Register R12
1573:Middlewares/ST/BlueNRG-2/hci/bluenrg1_events_cb.c ****   * @param LR Link register
1574:Middlewares/ST/BlueNRG-2/hci/bluenrg1_events_cb.c ****   * @param PC Program counter where crash occurred
1575:Middlewares/ST/BlueNRG-2/hci/bluenrg1_events_cb.c ****   * @param xPSR xPSR register
1576:Middlewares/ST/BlueNRG-2/hci/bluenrg1_events_cb.c ****   * @param Debug_Data_Length Length of Debug_Data field
1577:Middlewares/ST/BlueNRG-2/hci/bluenrg1_events_cb.c ****   * @param Debug_Data Debug data
1578:Middlewares/ST/BlueNRG-2/hci/bluenrg1_events_cb.c ****   * @retval None
1579:Middlewares/ST/BlueNRG-2/hci/bluenrg1_events_cb.c **** */
1580:Middlewares/ST/BlueNRG-2/hci/bluenrg1_events_cb.c **** WEAK_FUNCTION(void aci_blue_crash_info_event(uint8_t Crash_Type,
1581:Middlewares/ST/BlueNRG-2/hci/bluenrg1_events_cb.c ****                                uint32_t SP,
1582:Middlewares/ST/BlueNRG-2/hci/bluenrg1_events_cb.c ****                                uint32_t R0,
1583:Middlewares/ST/BlueNRG-2/hci/bluenrg1_events_cb.c ****                                uint32_t R1,
1584:Middlewares/ST/BlueNRG-2/hci/bluenrg1_events_cb.c ****                                uint32_t R2,
1585:Middlewares/ST/BlueNRG-2/hci/bluenrg1_events_cb.c ****                                uint32_t R3,
1586:Middlewares/ST/BlueNRG-2/hci/bluenrg1_events_cb.c ****                                uint32_t R12,
1587:Middlewares/ST/BlueNRG-2/hci/bluenrg1_events_cb.c ****                                uint32_t LR,
1588:Middlewares/ST/BlueNRG-2/hci/bluenrg1_events_cb.c ****                                uint32_t PC,
1589:Middlewares/ST/BlueNRG-2/hci/bluenrg1_events_cb.c ****                                uint32_t xPSR,
1590:Middlewares/ST/BlueNRG-2/hci/bluenrg1_events_cb.c ****                                uint8_t Debug_Data_Length,
ARM GAS  C:\Users\zafee\AppData\Local\Temp\ccvOQAyH.s 			page 48


1591:Middlewares/ST/BlueNRG-2/hci/bluenrg1_events_cb.c ****                                uint8_t Debug_Data[]))
1592:Middlewares/ST/BlueNRG-2/hci/bluenrg1_events_cb.c **** {
 1203              		.loc 1 1592 1 is_stmt 1 view -0
 1204              		.cfi_startproc
 1205              		@ args = 32, pretend = 0, frame = 0
 1206              		@ frame_needed = 0, uses_anonymous_args = 0
 1207              		@ link register save eliminated.
1593:Middlewares/ST/BlueNRG-2/hci/bluenrg1_events_cb.c ****   /* NOTE : This function Should not be modified, when needed,
1594:Middlewares/ST/BlueNRG-2/hci/bluenrg1_events_cb.c ****             the callback could be implemented in the user file
1595:Middlewares/ST/BlueNRG-2/hci/bluenrg1_events_cb.c ****    */
1596:Middlewares/ST/BlueNRG-2/hci/bluenrg1_events_cb.c ****   BLUENRG_PRINTF("aci_blue_crash_info_event\r\n");
 1208              		.loc 1 1596 50 view .LVU169
1597:Middlewares/ST/BlueNRG-2/hci/bluenrg1_events_cb.c **** }
 1209              		.loc 1 1597 1 is_stmt 0 view .LVU170
 1210 0000 7047     		bx	lr
 1211              		.cfi_endproc
 1212              	.LFE186:
 1214              		.section	.text.aci_hal_end_of_radio_activity_event,"ax",%progbits
 1215              		.align	1
 1216              		.weak	aci_hal_end_of_radio_activity_event
 1217              		.syntax unified
 1218              		.thumb
 1219              		.thumb_func
 1221              	aci_hal_end_of_radio_activity_event:
 1222              	.LVL54:
 1223              	.LFB187:
1598:Middlewares/ST/BlueNRG-2/hci/bluenrg1_events_cb.c **** /**
1599:Middlewares/ST/BlueNRG-2/hci/bluenrg1_events_cb.c ****   * @brief 'This event is generated when the device completes a radio activity and provide informat
1600:Middlewares/ST/BlueNRG-2/hci/bluenrg1_events_cb.c **** Informtation provided includes type of radio activity and absolute time in system ticks when a new 
1601:Middlewares/ST/BlueNRG-2/hci/bluenrg1_events_cb.c **** User should take into account that enablinng radio events in application with intense radio activit
1602:Middlewares/ST/BlueNRG-2/hci/bluenrg1_events_cb.c **** Application use cases includes synchronizing notification with connection interval, switiching ante
1603:Middlewares/ST/BlueNRG-2/hci/bluenrg1_events_cb.c ****   * @param Last_State Completed radio events
1604:Middlewares/ST/BlueNRG-2/hci/bluenrg1_events_cb.c ****   * Values:
1605:Middlewares/ST/BlueNRG-2/hci/bluenrg1_events_cb.c ****   - 0x00: Idle
1606:Middlewares/ST/BlueNRG-2/hci/bluenrg1_events_cb.c ****   - 0x01: Advertising
1607:Middlewares/ST/BlueNRG-2/hci/bluenrg1_events_cb.c ****   - 0x02: Connection event slave
1608:Middlewares/ST/BlueNRG-2/hci/bluenrg1_events_cb.c ****   - 0x03: Scanning
1609:Middlewares/ST/BlueNRG-2/hci/bluenrg1_events_cb.c ****   - 0x04: Connection request
1610:Middlewares/ST/BlueNRG-2/hci/bluenrg1_events_cb.c ****   - 0x05: Connection event master
1611:Middlewares/ST/BlueNRG-2/hci/bluenrg1_events_cb.c ****   - 0x06: TX test mode
1612:Middlewares/ST/BlueNRG-2/hci/bluenrg1_events_cb.c ****   - 0x07: RX test mode
1613:Middlewares/ST/BlueNRG-2/hci/bluenrg1_events_cb.c ****   * @param Next_State Incoming radio events
1614:Middlewares/ST/BlueNRG-2/hci/bluenrg1_events_cb.c ****   * Values:
1615:Middlewares/ST/BlueNRG-2/hci/bluenrg1_events_cb.c ****   - 0x00: Idle
1616:Middlewares/ST/BlueNRG-2/hci/bluenrg1_events_cb.c ****   - 0x01: Advertising
1617:Middlewares/ST/BlueNRG-2/hci/bluenrg1_events_cb.c ****   - 0x02: Connection event slave
1618:Middlewares/ST/BlueNRG-2/hci/bluenrg1_events_cb.c ****   - 0x03: Scanning
1619:Middlewares/ST/BlueNRG-2/hci/bluenrg1_events_cb.c ****   - 0x04: Connection request
1620:Middlewares/ST/BlueNRG-2/hci/bluenrg1_events_cb.c ****   - 0x05: Connection event master
1621:Middlewares/ST/BlueNRG-2/hci/bluenrg1_events_cb.c ****   - 0x06: TX test mode
1622:Middlewares/ST/BlueNRG-2/hci/bluenrg1_events_cb.c ****   - 0x07: RX test mode
1623:Middlewares/ST/BlueNRG-2/hci/bluenrg1_events_cb.c ****   * @param Next_State_SysTime 32bit absolute current time expressed in internal time units.
1624:Middlewares/ST/BlueNRG-2/hci/bluenrg1_events_cb.c ****   * @retval None
1625:Middlewares/ST/BlueNRG-2/hci/bluenrg1_events_cb.c **** */
1626:Middlewares/ST/BlueNRG-2/hci/bluenrg1_events_cb.c **** WEAK_FUNCTION(void aci_hal_end_of_radio_activity_event(uint8_t Last_State,
1627:Middlewares/ST/BlueNRG-2/hci/bluenrg1_events_cb.c ****                                          uint8_t Next_State,
1628:Middlewares/ST/BlueNRG-2/hci/bluenrg1_events_cb.c ****                                          uint32_t Next_State_SysTime))
ARM GAS  C:\Users\zafee\AppData\Local\Temp\ccvOQAyH.s 			page 49


1629:Middlewares/ST/BlueNRG-2/hci/bluenrg1_events_cb.c **** {
 1224              		.loc 1 1629 1 is_stmt 1 view -0
 1225              		.cfi_startproc
 1226              		@ args = 0, pretend = 0, frame = 0
 1227              		@ frame_needed = 0, uses_anonymous_args = 0
 1228              		@ link register save eliminated.
1630:Middlewares/ST/BlueNRG-2/hci/bluenrg1_events_cb.c ****   /* NOTE : This function Should not be modified, when needed,
1631:Middlewares/ST/BlueNRG-2/hci/bluenrg1_events_cb.c ****             the callback could be implemented in the user file
1632:Middlewares/ST/BlueNRG-2/hci/bluenrg1_events_cb.c ****    */
1633:Middlewares/ST/BlueNRG-2/hci/bluenrg1_events_cb.c ****   BLUENRG_PRINTF("aci_hal_end_of_radio_activity_event\r\n");
 1229              		.loc 1 1633 60 view .LVU172
1634:Middlewares/ST/BlueNRG-2/hci/bluenrg1_events_cb.c **** }
 1230              		.loc 1 1634 1 is_stmt 0 view .LVU173
 1231 0000 7047     		bx	lr
 1232              		.cfi_endproc
 1233              	.LFE187:
 1235              		.section	.text.aci_hal_scan_req_report_event,"ax",%progbits
 1236              		.align	1
 1237              		.weak	aci_hal_scan_req_report_event
 1238              		.syntax unified
 1239              		.thumb
 1240              		.thumb_func
 1242              	aci_hal_scan_req_report_event:
 1243              	.LVL55:
 1244              	.LFB188:
1635:Middlewares/ST/BlueNRG-2/hci/bluenrg1_events_cb.c **** /**
1636:Middlewares/ST/BlueNRG-2/hci/bluenrg1_events_cb.c ****   * @brief This event is reported to the application after a scan request is received and a scan re
1637:Middlewares/ST/BlueNRG-2/hci/bluenrg1_events_cb.c **** is scheduled to be transmitted.
1638:Middlewares/ST/BlueNRG-2/hci/bluenrg1_events_cb.c ****   * @param RSSI N Size: 1 Octet (signed integer)
1639:Middlewares/ST/BlueNRG-2/hci/bluenrg1_events_cb.c **** Units: dBm
1640:Middlewares/ST/BlueNRG-2/hci/bluenrg1_events_cb.c ****   * Values:
1641:Middlewares/ST/BlueNRG-2/hci/bluenrg1_events_cb.c ****   - 127: RSSI not available
1642:Middlewares/ST/BlueNRG-2/hci/bluenrg1_events_cb.c ****   - -127 ... 20
1643:Middlewares/ST/BlueNRG-2/hci/bluenrg1_events_cb.c ****   * @param Peer_Address_Type 0x00 Public Device Address
1644:Middlewares/ST/BlueNRG-2/hci/bluenrg1_events_cb.c **** 0x01 Random Device Address
1645:Middlewares/ST/BlueNRG-2/hci/bluenrg1_events_cb.c **** 0x02 Public Identity Address (Corresponds to Resolved Private Address)
1646:Middlewares/ST/BlueNRG-2/hci/bluenrg1_events_cb.c **** 0x03 Random (Static) Identity Address (Corresponds to Resolved Private Address)
1647:Middlewares/ST/BlueNRG-2/hci/bluenrg1_events_cb.c ****   * Values:
1648:Middlewares/ST/BlueNRG-2/hci/bluenrg1_events_cb.c ****   - 0x00: Public Device Address
1649:Middlewares/ST/BlueNRG-2/hci/bluenrg1_events_cb.c ****   - 0x01: Random Device Address
1650:Middlewares/ST/BlueNRG-2/hci/bluenrg1_events_cb.c ****   - 0x02: Public Identity Address
1651:Middlewares/ST/BlueNRG-2/hci/bluenrg1_events_cb.c ****   - 0x03: Random (Static) Identity Address
1652:Middlewares/ST/BlueNRG-2/hci/bluenrg1_events_cb.c ****   * @param Peer_Address Public Device Address or Random Device Address of the peer device
1653:Middlewares/ST/BlueNRG-2/hci/bluenrg1_events_cb.c ****   * @retval None
1654:Middlewares/ST/BlueNRG-2/hci/bluenrg1_events_cb.c **** */
1655:Middlewares/ST/BlueNRG-2/hci/bluenrg1_events_cb.c **** WEAK_FUNCTION(void aci_hal_scan_req_report_event(int8_t RSSI,
1656:Middlewares/ST/BlueNRG-2/hci/bluenrg1_events_cb.c ****                                    uint8_t Peer_Address_Type,
1657:Middlewares/ST/BlueNRG-2/hci/bluenrg1_events_cb.c ****                                    uint8_t Peer_Address[6]))
1658:Middlewares/ST/BlueNRG-2/hci/bluenrg1_events_cb.c **** {
 1245              		.loc 1 1658 1 is_stmt 1 view -0
 1246              		.cfi_startproc
 1247              		@ args = 0, pretend = 0, frame = 0
 1248              		@ frame_needed = 0, uses_anonymous_args = 0
 1249              		@ link register save eliminated.
1659:Middlewares/ST/BlueNRG-2/hci/bluenrg1_events_cb.c ****   /* NOTE : This function Should not be modified, when needed,
1660:Middlewares/ST/BlueNRG-2/hci/bluenrg1_events_cb.c ****             the callback could be implemented in the user file
1661:Middlewares/ST/BlueNRG-2/hci/bluenrg1_events_cb.c ****    */
ARM GAS  C:\Users\zafee\AppData\Local\Temp\ccvOQAyH.s 			page 50


1662:Middlewares/ST/BlueNRG-2/hci/bluenrg1_events_cb.c ****   BLUENRG_PRINTF("aci_hal_scan_req_report_event\r\n");
 1250              		.loc 1 1662 54 view .LVU175
1663:Middlewares/ST/BlueNRG-2/hci/bluenrg1_events_cb.c **** }
 1251              		.loc 1 1663 1 is_stmt 0 view .LVU176
 1252 0000 7047     		bx	lr
 1253              		.cfi_endproc
 1254              	.LFE188:
 1256              		.section	.text.aci_hal_fw_error_event,"ax",%progbits
 1257              		.align	1
 1258              		.weak	aci_hal_fw_error_event
 1259              		.syntax unified
 1260              		.thumb
 1261              		.thumb_func
 1263              	aci_hal_fw_error_event:
 1264              	.LVL56:
 1265              	.LFB189:
1664:Middlewares/ST/BlueNRG-2/hci/bluenrg1_events_cb.c **** /**
1665:Middlewares/ST/BlueNRG-2/hci/bluenrg1_events_cb.c ****   * @brief This event is generated to report firmware error informations.
1666:Middlewares/ST/BlueNRG-2/hci/bluenrg1_events_cb.c ****   * @param FW_Error_Type FW Error type
1667:Middlewares/ST/BlueNRG-2/hci/bluenrg1_events_cb.c ****   * Values:
1668:Middlewares/ST/BlueNRG-2/hci/bluenrg1_events_cb.c ****   - 0x01: L2CAP recombination failure
1669:Middlewares/ST/BlueNRG-2/hci/bluenrg1_events_cb.c ****   * @param Data_Length Length of Data in octets
1670:Middlewares/ST/BlueNRG-2/hci/bluenrg1_events_cb.c ****   * @param Data The error event info
1671:Middlewares/ST/BlueNRG-2/hci/bluenrg1_events_cb.c ****   * @retval None
1672:Middlewares/ST/BlueNRG-2/hci/bluenrg1_events_cb.c **** */
1673:Middlewares/ST/BlueNRG-2/hci/bluenrg1_events_cb.c **** WEAK_FUNCTION(void aci_hal_fw_error_event(uint8_t FW_Error_Type,
1674:Middlewares/ST/BlueNRG-2/hci/bluenrg1_events_cb.c ****                             uint8_t Data_Length,
1675:Middlewares/ST/BlueNRG-2/hci/bluenrg1_events_cb.c ****                             uint8_t Data[]))
1676:Middlewares/ST/BlueNRG-2/hci/bluenrg1_events_cb.c **** {
 1266              		.loc 1 1676 1 is_stmt 1 view -0
 1267              		.cfi_startproc
 1268              		@ args = 0, pretend = 0, frame = 0
 1269              		@ frame_needed = 0, uses_anonymous_args = 0
 1270              		@ link register save eliminated.
1677:Middlewares/ST/BlueNRG-2/hci/bluenrg1_events_cb.c ****   /* NOTE : This function Should not be modified, when needed,
1678:Middlewares/ST/BlueNRG-2/hci/bluenrg1_events_cb.c ****             the callback could be implemented in the user file
1679:Middlewares/ST/BlueNRG-2/hci/bluenrg1_events_cb.c ****    */
1680:Middlewares/ST/BlueNRG-2/hci/bluenrg1_events_cb.c ****   BLUENRG_PRINTF("aci_hal_fw_error_event\r\n");
 1271              		.loc 1 1680 47 view .LVU178
1681:Middlewares/ST/BlueNRG-2/hci/bluenrg1_events_cb.c **** }
 1272              		.loc 1 1681 1 is_stmt 0 view .LVU179
 1273 0000 7047     		bx	lr
 1274              		.cfi_endproc
 1275              	.LFE189:
 1277              		.text
 1278              	.Letext0:
 1279              		.file 2 "c:\\users\\zafee\\appdata\\roaming\\code - insiders\\user\\globalstorage\\bmd.stm32-for-v
 1280              		.file 3 "c:\\users\\zafee\\appdata\\roaming\\code - insiders\\user\\globalstorage\\bmd.stm32-for-v
 1281              		.file 4 "Middlewares/ST/BlueNRG-2/includes/bluenrg1_events.h"
ARM GAS  C:\Users\zafee\AppData\Local\Temp\ccvOQAyH.s 			page 51

